

Microchip MPLAB XC8 Assembler V2.32 build 20210201212658 
                                                                                               Wed Jun 23 19:06:44 2021

Microchip MPLAB XC8 C Compiler v2.32 (Free license) build 20210201212658 Og1 
     1                           	processor	16F1619
     2                           	pagewidth 120
     3                           	opt	flic
     4                           	psect	idataCOMMON,global,class=CODE,delta=2,noexec
     5                           	psect	idataBANK0,global,class=CODE,delta=2,noexec
     6                           	psect	stringtext1,global,class=STRCODE,delta=2,noexec
     7                           	psect	nvBANK0,global,class=BANK0,space=1,delta=1,noexec
     8                           	psect	stringtext2,global,class=STRCODE,delta=2,noexec
     9                           	psect	stringtext3,global,class=STRCODE,delta=2,noexec
    10                           	psect	stringtext4,global,class=STRCODE,delta=2,noexec
    11                           	psect	stringtext5,global,class=STRCODE,delta=2,noexec
    12                           	psect	stringtext6,global,class=STRCODE,delta=2,noexec
    13                           	psect	stringtext7,global,class=STRCODE,delta=2,noexec
    14                           	psect	stringtext8,global,class=STRCODE,delta=2,noexec
    15                           	psect	stringtext9,global,class=STRCODE,delta=2,noexec
    16                           	psect	stringtext10,global,class=STRCODE,delta=2,noexec
    17                           	psect	stringtext11,global,class=STRCODE,delta=2,noexec
    18                           	psect	stringtext12,global,class=STRCODE,delta=2,noexec
    19                           	psect	stringtext13,global,class=STRCODE,delta=2,noexec
    20                           	psect	stringtext14,global,class=STRCODE,delta=2,noexec
    21                           	psect	stringtext15,global,class=STRCODE,delta=2,noexec
    22                           	psect	stringtext16,global,class=STRCODE,delta=2,noexec
    23                           	psect	stringtext17,global,class=STRCODE,delta=2,noexec
    24                           	psect	cinit,global,class=CODE,merge=1,delta=2
    25                           	psect	dataCOMMON,global,class=COMMON,space=1,delta=1,noexec
    26                           	psect	bssBANK0,global,class=BANK0,space=1,delta=1,noexec
    27                           	psect	dataBANK0,global,class=BANK0,space=1,delta=1,noexec
    28                           	psect	cstackCOMMON,global,class=COMMON,space=1,delta=1,noexec
    29                           	psect	maintext,global,class=CODE,merge=1,split=1,delta=2
    30                           	psect	text1,local,class=CODE,merge=1,delta=2
    31                           	psect	text2,local,class=CODE,merge=1,delta=2
    32                           	psect	text3,local,class=CODE,merge=1,delta=2
    33                           	psect	text4,local,class=CODE,merge=1,delta=2
    34                           	psect	text5,local,class=CODE,merge=1,delta=2
    35                           	psect	text6,local,class=CODE,merge=1,delta=2
    36                           	psect	text7,local,class=CODE,merge=1,delta=2
    37                           	psect	text8,local,class=CODE,merge=1,delta=2
    38                           	psect	text9,local,class=CODE,merge=1,delta=2
    39                           	psect	text10,local,class=CODE,merge=1,delta=2
    40                           	psect	text11,local,class=CODE,merge=1,delta=2
    41                           	psect	text12,local,class=CODE,merge=1,delta=2
    42                           	psect	text13,local,class=CODE,merge=1,delta=2
    43                           	psect	text14,local,class=CODE,merge=1,delta=2
    44                           	psect	text15,local,class=CODE,merge=1,delta=2
    45                           	psect	text16,local,class=CODE,merge=1,delta=2
    46                           	psect	text17,local,class=CODE,merge=1,delta=2
    47                           	psect	text18,local,class=CODE,merge=1,delta=2
    48                           	psect	text19,local,class=CODE,merge=1,delta=2
    49                           	psect	text20,local,class=CODE,merge=1,delta=2
    50                           	psect	text21,local,class=CODE,merge=1,delta=2
    51                           	psect	text22,local,class=CODE,merge=1,delta=2
    52                           	psect	text23,local,class=CODE,merge=1,delta=2
    53                           	psect	text24,local,class=CODE,merge=1,delta=2
    54                           	psect	text25,local,class=CODE,merge=1,delta=2
    55                           	psect	text26,local,class=CODE,merge=1,delta=2
    56                           	psect	config,global,abs,ovrld,class=CONFIG,space=4,delta=2,noexec
    57                           	dabs	1,0x7E,2
    58  0000                     
    59                           ; Version 2.20
    60                           ; Generated 12/02/2020 GMT
    61                           ; 
    62                           ; Copyright © 2020, Microchip Technology Inc. and its subsidiaries ("Microchip")
    63                           ; All rights reserved.
    64                           ; 
    65                           ; This software is developed by Microchip Technology Inc. and its subsidiaries ("Microch
      +                          ip").
    66                           ; 
    67                           ; Redistribution and use in source and binary forms, with or without modification, are
    68                           ; permitted provided that the following conditions are met:
    69                           ; 
    70                           ;     1. Redistributions of source code must retain the above copyright notice, this lis
      +                          t of
    71                           ;        conditions and the following disclaimer.
    72                           ; 
    73                           ;     2. Redistributions in binary form must reproduce the above copyright notice, this 
      +                          list
    74                           ;        of conditions and the following disclaimer in the documentation and/or other
    75                           ;        materials provided with the distribution.
    76                           ; 
    77                           ;     3. Microchip's name may not be used to endorse or promote products derived from th
      +                          is
    78                           ;        software without specific prior written permission.
    79                           ; 
    80                           ; THIS SOFTWARE IS PROVIDED BY MICROCHIP "AS IS" AND ANY EXPRESS OR IMPLIED WARRANTIES,
    81                           ; INCLUDING, BUT NOT LIMITED TO, THE IMPLIED WARRANTIES OF MERCHANTABILITY AND FITNESS F
      +                          OR
    82                           ; PURPOSE ARE DISCLAIMED.  IN NO EVENT SHALL MICROCHIP BE LIABLE FOR ANY DIRECT, INDIREC
      +                          T,
    83                           ; INCIDENTAL, SPECIAL, EXEMPLARY, OR CONSEQUENTIAL DAMAGES (INCLUDING BUT NOT LIMITED TO
    84                           ; PROCUREMENT OF SUBSTITUTE GOODS OR SERVICES; LOSS OF USE, DATA OR PROFITS; OR BUSINESS
    85                           ; INTERRUPTION) HOWSOEVER CAUSED AND ON ANY THEORY OF LIABILITY, WHETHER IN CONTRACT, ST
      +                          RICT
    86                           ; LIABILITY, OR TORT (INCLUDING NEGLIGENCE OR OTHERWISE) ARISING IN ANY WAY OUT OF THE U
      +                          SE OF
    87                           ; THIS SOFTWARE, EVEN IF ADVISED OF THE POSSIBILITY OF SUCH DAMAGE.
    88                           ; 
    89                           ; 
    90                           ; Code-generator required, PIC16F1619 Definitions
    91                           ; 
    92                           ; SFR Addresses
    93  0000                     	;# 
    94  0001                     	;# 
    95  0002                     	;# 
    96  0003                     	;# 
    97  0004                     	;# 
    98  0005                     	;# 
    99  0006                     	;# 
   100  0007                     	;# 
   101  0008                     	;# 
   102  0009                     	;# 
   103  000A                     	;# 
   104  000B                     	;# 
   105  000C                     	;# 
   106  000D                     	;# 
   107  000E                     	;# 
   108  0010                     	;# 
   109  0011                     	;# 
   110  0012                     	;# 
   111  0013                     	;# 
   112  0014                     	;# 
   113  0015                     	;# 
   114  0016                     	;# 
   115  0016                     	;# 
   116  0017                     	;# 
   117  0018                     	;# 
   118  0019                     	;# 
   119  001A                     	;# 
   120  001A                     	;# 
   121  001B                     	;# 
   122  001B                     	;# 
   123  001C                     	;# 
   124  001D                     	;# 
   125  001E                     	;# 
   126  001F                     	;# 
   127  008C                     	;# 
   128  008D                     	;# 
   129  008E                     	;# 
   130  0090                     	;# 
   131  0091                     	;# 
   132  0092                     	;# 
   133  0093                     	;# 
   134  0094                     	;# 
   135  0095                     	;# 
   136  0096                     	;# 
   137  0098                     	;# 
   138  0099                     	;# 
   139  009A                     	;# 
   140  009B                     	;# 
   141  009B                     	;# 
   142  009C                     	;# 
   143  009D                     	;# 
   144  009E                     	;# 
   145  009F                     	;# 
   146  010C                     	;# 
   147  010D                     	;# 
   148  010E                     	;# 
   149  0111                     	;# 
   150  0112                     	;# 
   151  0113                     	;# 
   152  0114                     	;# 
   153  0115                     	;# 
   154  0116                     	;# 
   155  0117                     	;# 
   156  0118                     	;# 
   157  0119                     	;# 
   158  011C                     	;# 
   159  018C                     	;# 
   160  018D                     	;# 
   161  018E                     	;# 
   162  0191                     	;# 
   163  0191                     	;# 
   164  0192                     	;# 
   165  0193                     	;# 
   166  0193                     	;# 
   167  0194                     	;# 
   168  0195                     	;# 
   169  0196                     	;# 
   170  0197                     	;# 
   171  0199                     	;# 
   172  0199                     	;# 
   173  0199                     	;# 
   174  019A                     	;# 
   175  019A                     	;# 
   176  019A                     	;# 
   177  019B                     	;# 
   178  019B                     	;# 
   179  019B                     	;# 
   180  019B                     	;# 
   181  019B                     	;# 
   182  019C                     	;# 
   183  019C                     	;# 
   184  019C                     	;# 
   185  019D                     	;# 
   186  019D                     	;# 
   187  019D                     	;# 
   188  019E                     	;# 
   189  019E                     	;# 
   190  019E                     	;# 
   191  019F                     	;# 
   192  019F                     	;# 
   193  019F                     	;# 
   194  019F                     	;# 
   195  019F                     	;# 
   196  020C                     	;# 
   197  020D                     	;# 
   198  020E                     	;# 
   199  0211                     	;# 
   200  0211                     	;# 
   201  0212                     	;# 
   202  0212                     	;# 
   203  0213                     	;# 
   204  0213                     	;# 
   205  0214                     	;# 
   206  0214                     	;# 
   207  0215                     	;# 
   208  0215                     	;# 
   209  0215                     	;# 
   210  0215                     	;# 
   211  0216                     	;# 
   212  0216                     	;# 
   213  0217                     	;# 
   214  0217                     	;# 
   215  028C                     	;# 
   216  028D                     	;# 
   217  028E                     	;# 
   218  0291                     	;# 
   219  0291                     	;# 
   220  0292                     	;# 
   221  0293                     	;# 
   222  0294                     	;# 
   223  0298                     	;# 
   224  0298                     	;# 
   225  0299                     	;# 
   226  029A                     	;# 
   227  029B                     	;# 
   228  029E                     	;# 
   229  030C                     	;# 
   230  030D                     	;# 
   231  030E                     	;# 
   232  038C                     	;# 
   233  038D                     	;# 
   234  038E                     	;# 
   235  0391                     	;# 
   236  0392                     	;# 
   237  0393                     	;# 
   238  0394                     	;# 
   239  0395                     	;# 
   240  0396                     	;# 
   241  0397                     	;# 
   242  0398                     	;# 
   243  0399                     	;# 
   244  040E                     	;# 
   245  0413                     	;# 
   246  0413                     	;# 
   247  0414                     	;# 
   248  0414                     	;# 
   249  0415                     	;# 
   250  0416                     	;# 
   251  0417                     	;# 
   252  0418                     	;# 
   253  041A                     	;# 
   254  041A                     	;# 
   255  041B                     	;# 
   256  041B                     	;# 
   257  041C                     	;# 
   258  041D                     	;# 
   259  041E                     	;# 
   260  041F                     	;# 
   261  0493                     	;# 
   262  0494                     	;# 
   263  0495                     	;# 
   264  0496                     	;# 
   265  049A                     	;# 
   266  049B                     	;# 
   267  049C                     	;# 
   268  049D                     	;# 
   269  058C                     	;# 
   270  058C                     	;# 
   271  058D                     	;# 
   272  058E                     	;# 
   273  058E                     	;# 
   274  058F                     	;# 
   275  0590                     	;# 
   276  0590                     	;# 
   277  0591                     	;# 
   278  0592                     	;# 
   279  0592                     	;# 
   280  0593                     	;# 
   281  0594                     	;# 
   282  0594                     	;# 
   283  0595                     	;# 
   284  0596                     	;# 
   285  0596                     	;# 
   286  0597                     	;# 
   287  0598                     	;# 
   288  0599                     	;# 
   289  059A                     	;# 
   290  059B                     	;# 
   291  059B                     	;# 
   292  059C                     	;# 
   293  059D                     	;# 
   294  060C                     	;# 
   295  060C                     	;# 
   296  060D                     	;# 
   297  060E                     	;# 
   298  060F                     	;# 
   299  060F                     	;# 
   300  0610                     	;# 
   301  0611                     	;# 
   302  0612                     	;# 
   303  0613                     	;# 
   304  0614                     	;# 
   305  0617                     	;# 
   306  0617                     	;# 
   307  0618                     	;# 
   308  0619                     	;# 
   309  061A                     	;# 
   310  061A                     	;# 
   311  061B                     	;# 
   312  061C                     	;# 
   313  0691                     	;# 
   314  0692                     	;# 
   315  0693                     	;# 
   316  0694                     	;# 
   317  0695                     	;# 
   318  0696                     	;# 
   319  0697                     	;# 
   320  0699                     	;# 
   321  069A                     	;# 
   322  0711                     	;# 
   323  0712                     	;# 
   324  0713                     	;# 
   325  0714                     	;# 
   326  0715                     	;# 
   327  0718                     	;# 
   328  0718                     	;# 
   329  0719                     	;# 
   330  071A                     	;# 
   331  071A                     	;# 
   332  071B                     	;# 
   333  071C                     	;# 
   334  071D                     	;# 
   335  0791                     	;# 
   336  0791                     	;# 
   337  0792                     	;# 
   338  0793                     	;# 
   339  0793                     	;# 
   340  0794                     	;# 
   341  0795                     	;# 
   342  0795                     	;# 
   343  0796                     	;# 
   344  0797                     	;# 
   345  0797                     	;# 
   346  0798                     	;# 
   347  0799                     	;# 
   348  079A                     	;# 
   349  080C                     	;# 
   350  080C                     	;# 
   351  080D                     	;# 
   352  080E                     	;# 
   353  080E                     	;# 
   354  080F                     	;# 
   355  0810                     	;# 
   356  0810                     	;# 
   357  0811                     	;# 
   358  0812                     	;# 
   359  0812                     	;# 
   360  0813                     	;# 
   361  0814                     	;# 
   362  0815                     	;# 
   363  0816                     	;# 
   364  0817                     	;# 
   365  0818                     	;# 
   366  0819                     	;# 
   367  081A                     	;# 
   368  081A                     	;# 
   369  081B                     	;# 
   370  081C                     	;# 
   371  081C                     	;# 
   372  081D                     	;# 
   373  088C                     	;# 
   374  088D                     	;# 
   375  088E                     	;# 
   376  088F                     	;# 
   377  088F                     	;# 
   378  0890                     	;# 
   379  0891                     	;# 
   380  0892                     	;# 
   381  0893                     	;# 
   382  0893                     	;# 
   383  0894                     	;# 
   384  0895                     	;# 
   385  0896                     	;# 
   386  0897                     	;# 
   387  0897                     	;# 
   388  0898                     	;# 
   389  0899                     	;# 
   390  0D8C                     	;# 
   391  0D8C                     	;# 
   392  0D8D                     	;# 
   393  0D8E                     	;# 
   394  0D8F                     	;# 
   395  0D8F                     	;# 
   396  0D90                     	;# 
   397  0D91                     	;# 
   398  0D92                     	;# 
   399  0D92                     	;# 
   400  0D93                     	;# 
   401  0D94                     	;# 
   402  0D95                     	;# 
   403  0D95                     	;# 
   404  0D96                     	;# 
   405  0D97                     	;# 
   406  0D98                     	;# 
   407  0D99                     	;# 
   408  0D9A                     	;# 
   409  0D9B                     	;# 
   410  0D9C                     	;# 
   411  0D9D                     	;# 
   412  0D9E                     	;# 
   413  0D9E                     	;# 
   414  0D9F                     	;# 
   415  0DA0                     	;# 
   416  0DA1                     	;# 
   417  0DA1                     	;# 
   418  0DA2                     	;# 
   419  0DA3                     	;# 
   420  0DA4                     	;# 
   421  0DA4                     	;# 
   422  0DA5                     	;# 
   423  0DA6                     	;# 
   424  0DA7                     	;# 
   425  0DA7                     	;# 
   426  0DA8                     	;# 
   427  0DA9                     	;# 
   428  0DAA                     	;# 
   429  0DAB                     	;# 
   430  0DAC                     	;# 
   431  0DAD                     	;# 
   432  0DAE                     	;# 
   433  0DAF                     	;# 
   434  0E0F                     	;# 
   435  0E10                     	;# 
   436  0E11                     	;# 
   437  0E12                     	;# 
   438  0E13                     	;# 
   439  0E14                     	;# 
   440  0E15                     	;# 
   441  0E16                     	;# 
   442  0E17                     	;# 
   443  0E18                     	;# 
   444  0E19                     	;# 
   445  0E1A                     	;# 
   446  0E1B                     	;# 
   447  0E1C                     	;# 
   448  0E1D                     	;# 
   449  0E1E                     	;# 
   450  0E1F                     	;# 
   451  0E20                     	;# 
   452  0E21                     	;# 
   453  0E22                     	;# 
   454  0E23                     	;# 
   455  0E24                     	;# 
   456  0E25                     	;# 
   457  0E26                     	;# 
   458  0E27                     	;# 
   459  0E28                     	;# 
   460  0E29                     	;# 
   461  0E2A                     	;# 
   462  0E2B                     	;# 
   463  0E2C                     	;# 
   464  0E2D                     	;# 
   465  0E2E                     	;# 
   466  0E90                     	;# 
   467  0E91                     	;# 
   468  0E92                     	;# 
   469  0E94                     	;# 
   470  0E95                     	;# 
   471  0E9C                     	;# 
   472  0E9D                     	;# 
   473  0E9E                     	;# 
   474  0E9F                     	;# 
   475  0EA0                     	;# 
   476  0EA1                     	;# 
   477  0EA2                     	;# 
   478  0EA3                     	;# 
   479  0EA4                     	;# 
   480  0EA5                     	;# 
   481  0EA6                     	;# 
   482  0EA7                     	;# 
   483  0F0F                     	;# 
   484  0F10                     	;# 
   485  0F11                     	;# 
   486  0F12                     	;# 
   487  0F13                     	;# 
   488  0F14                     	;# 
   489  0F15                     	;# 
   490  0F16                     	;# 
   491  0F17                     	;# 
   492  0F18                     	;# 
   493  0F19                     	;# 
   494  0F1A                     	;# 
   495  0F1B                     	;# 
   496  0F1C                     	;# 
   497  0F1D                     	;# 
   498  0F1E                     	;# 
   499  0F1F                     	;# 
   500  0F20                     	;# 
   501  0F21                     	;# 
   502  0F22                     	;# 
   503  0F23                     	;# 
   504  0F24                     	;# 
   505  0F25                     	;# 
   506  0F26                     	;# 
   507  0F27                     	;# 
   508  0F28                     	;# 
   509  0F29                     	;# 
   510  0F2A                     	;# 
   511  0F2B                     	;# 
   512  0F2C                     	;# 
   513  0F2D                     	;# 
   514  0F2E                     	;# 
   515  0F2F                     	;# 
   516  0F30                     	;# 
   517  0F31                     	;# 
   518  0F32                     	;# 
   519  0F33                     	;# 
   520  0F34                     	;# 
   521  0F35                     	;# 
   522  0F36                     	;# 
   523  0F37                     	;# 
   524  0FE4                     	;# 
   525  0FE5                     	;# 
   526  0FE6                     	;# 
   527  0FE7                     	;# 
   528  0FE8                     	;# 
   529  0FE9                     	;# 
   530  0FEA                     	;# 
   531  0FEB                     	;# 
   532  0FED                     	;# 
   533  0FEE                     	;# 
   534  0FEF                     	;# 
   535  0000                     	;# 
   536  0001                     	;# 
   537  0002                     	;# 
   538  0003                     	;# 
   539  0004                     	;# 
   540  0005                     	;# 
   541  0006                     	;# 
   542  0007                     	;# 
   543  0008                     	;# 
   544  0009                     	;# 
   545  000A                     	;# 
   546  000B                     	;# 
   547  000C                     	;# 
   548  000D                     	;# 
   549  000E                     	;# 
   550  0010                     	;# 
   551  0011                     	;# 
   552  0012                     	;# 
   553  0013                     	;# 
   554  0014                     	;# 
   555  0015                     	;# 
   556  0016                     	;# 
   557  0016                     	;# 
   558  0017                     	;# 
   559  0018                     	;# 
   560  0019                     	;# 
   561  001A                     	;# 
   562  001A                     	;# 
   563  001B                     	;# 
   564  001B                     	;# 
   565  001C                     	;# 
   566  001D                     	;# 
   567  001E                     	;# 
   568  001F                     	;# 
   569  008C                     	;# 
   570  008D                     	;# 
   571  008E                     	;# 
   572  0090                     	;# 
   573  0091                     	;# 
   574  0092                     	;# 
   575  0093                     	;# 
   576  0094                     	;# 
   577  0095                     	;# 
   578  0096                     	;# 
   579  0098                     	;# 
   580  0099                     	;# 
   581  009A                     	;# 
   582  009B                     	;# 
   583  009B                     	;# 
   584  009C                     	;# 
   585  009D                     	;# 
   586  009E                     	;# 
   587  009F                     	;# 
   588  010C                     	;# 
   589  010D                     	;# 
   590  010E                     	;# 
   591  0111                     	;# 
   592  0112                     	;# 
   593  0113                     	;# 
   594  0114                     	;# 
   595  0115                     	;# 
   596  0116                     	;# 
   597  0117                     	;# 
   598  0118                     	;# 
   599  0119                     	;# 
   600  011C                     	;# 
   601  018C                     	;# 
   602  018D                     	;# 
   603  018E                     	;# 
   604  0191                     	;# 
   605  0191                     	;# 
   606  0192                     	;# 
   607  0193                     	;# 
   608  0193                     	;# 
   609  0194                     	;# 
   610  0195                     	;# 
   611  0196                     	;# 
   612  0197                     	;# 
   613  0199                     	;# 
   614  0199                     	;# 
   615  0199                     	;# 
   616  019A                     	;# 
   617  019A                     	;# 
   618  019A                     	;# 
   619  019B                     	;# 
   620  019B                     	;# 
   621  019B                     	;# 
   622  019B                     	;# 
   623  019B                     	;# 
   624  019C                     	;# 
   625  019C                     	;# 
   626  019C                     	;# 
   627  019D                     	;# 
   628  019D                     	;# 
   629  019D                     	;# 
   630  019E                     	;# 
   631  019E                     	;# 
   632  019E                     	;# 
   633  019F                     	;# 
   634  019F                     	;# 
   635  019F                     	;# 
   636  019F                     	;# 
   637  019F                     	;# 
   638  020C                     	;# 
   639  020D                     	;# 
   640  020E                     	;# 
   641  0211                     	;# 
   642  0211                     	;# 
   643  0212                     	;# 
   644  0212                     	;# 
   645  0213                     	;# 
   646  0213                     	;# 
   647  0214                     	;# 
   648  0214                     	;# 
   649  0215                     	;# 
   650  0215                     	;# 
   651  0215                     	;# 
   652  0215                     	;# 
   653  0216                     	;# 
   654  0216                     	;# 
   655  0217                     	;# 
   656  0217                     	;# 
   657  028C                     	;# 
   658  028D                     	;# 
   659  028E                     	;# 
   660  0291                     	;# 
   661  0291                     	;# 
   662  0292                     	;# 
   663  0293                     	;# 
   664  0294                     	;# 
   665  0298                     	;# 
   666  0298                     	;# 
   667  0299                     	;# 
   668  029A                     	;# 
   669  029B                     	;# 
   670  029E                     	;# 
   671  030C                     	;# 
   672  030D                     	;# 
   673  030E                     	;# 
   674  038C                     	;# 
   675  038D                     	;# 
   676  038E                     	;# 
   677  0391                     	;# 
   678  0392                     	;# 
   679  0393                     	;# 
   680  0394                     	;# 
   681  0395                     	;# 
   682  0396                     	;# 
   683  0397                     	;# 
   684  0398                     	;# 
   685  0399                     	;# 
   686  040E                     	;# 
   687  0413                     	;# 
   688  0413                     	;# 
   689  0414                     	;# 
   690  0414                     	;# 
   691  0415                     	;# 
   692  0416                     	;# 
   693  0417                     	;# 
   694  0418                     	;# 
   695  041A                     	;# 
   696  041A                     	;# 
   697  041B                     	;# 
   698  041B                     	;# 
   699  041C                     	;# 
   700  041D                     	;# 
   701  041E                     	;# 
   702  041F                     	;# 
   703  0493                     	;# 
   704  0494                     	;# 
   705  0495                     	;# 
   706  0496                     	;# 
   707  049A                     	;# 
   708  049B                     	;# 
   709  049C                     	;# 
   710  049D                     	;# 
   711  058C                     	;# 
   712  058C                     	;# 
   713  058D                     	;# 
   714  058E                     	;# 
   715  058E                     	;# 
   716  058F                     	;# 
   717  0590                     	;# 
   718  0590                     	;# 
   719  0591                     	;# 
   720  0592                     	;# 
   721  0592                     	;# 
   722  0593                     	;# 
   723  0594                     	;# 
   724  0594                     	;# 
   725  0595                     	;# 
   726  0596                     	;# 
   727  0596                     	;# 
   728  0597                     	;# 
   729  0598                     	;# 
   730  0599                     	;# 
   731  059A                     	;# 
   732  059B                     	;# 
   733  059B                     	;# 
   734  059C                     	;# 
   735  059D                     	;# 
   736  060C                     	;# 
   737  060C                     	;# 
   738  060D                     	;# 
   739  060E                     	;# 
   740  060F                     	;# 
   741  060F                     	;# 
   742  0610                     	;# 
   743  0611                     	;# 
   744  0612                     	;# 
   745  0613                     	;# 
   746  0614                     	;# 
   747  0617                     	;# 
   748  0617                     	;# 
   749  0618                     	;# 
   750  0619                     	;# 
   751  061A                     	;# 
   752  061A                     	;# 
   753  061B                     	;# 
   754  061C                     	;# 
   755  0691                     	;# 
   756  0692                     	;# 
   757  0693                     	;# 
   758  0694                     	;# 
   759  0695                     	;# 
   760  0696                     	;# 
   761  0697                     	;# 
   762  0699                     	;# 
   763  069A                     	;# 
   764  0711                     	;# 
   765  0712                     	;# 
   766  0713                     	;# 
   767  0714                     	;# 
   768  0715                     	;# 
   769  0718                     	;# 
   770  0718                     	;# 
   771  0719                     	;# 
   772  071A                     	;# 
   773  071A                     	;# 
   774  071B                     	;# 
   775  071C                     	;# 
   776  071D                     	;# 
   777  0791                     	;# 
   778  0791                     	;# 
   779  0792                     	;# 
   780  0793                     	;# 
   781  0793                     	;# 
   782  0794                     	;# 
   783  0795                     	;# 
   784  0795                     	;# 
   785  0796                     	;# 
   786  0797                     	;# 
   787  0797                     	;# 
   788  0798                     	;# 
   789  0799                     	;# 
   790  079A                     	;# 
   791  080C                     	;# 
   792  080C                     	;# 
   793  080D                     	;# 
   794  080E                     	;# 
   795  080E                     	;# 
   796  080F                     	;# 
   797  0810                     	;# 
   798  0810                     	;# 
   799  0811                     	;# 
   800  0812                     	;# 
   801  0812                     	;# 
   802  0813                     	;# 
   803  0814                     	;# 
   804  0815                     	;# 
   805  0816                     	;# 
   806  0817                     	;# 
   807  0818                     	;# 
   808  0819                     	;# 
   809  081A                     	;# 
   810  081A                     	;# 
   811  081B                     	;# 
   812  081C                     	;# 
   813  081C                     	;# 
   814  081D                     	;# 
   815  088C                     	;# 
   816  088D                     	;# 
   817  088E                     	;# 
   818  088F                     	;# 
   819  088F                     	;# 
   820  0890                     	;# 
   821  0891                     	;# 
   822  0892                     	;# 
   823  0893                     	;# 
   824  0893                     	;# 
   825  0894                     	;# 
   826  0895                     	;# 
   827  0896                     	;# 
   828  0897                     	;# 
   829  0897                     	;# 
   830  0898                     	;# 
   831  0899                     	;# 
   832  0D8C                     	;# 
   833  0D8C                     	;# 
   834  0D8D                     	;# 
   835  0D8E                     	;# 
   836  0D8F                     	;# 
   837  0D8F                     	;# 
   838  0D90                     	;# 
   839  0D91                     	;# 
   840  0D92                     	;# 
   841  0D92                     	;# 
   842  0D93                     	;# 
   843  0D94                     	;# 
   844  0D95                     	;# 
   845  0D95                     	;# 
   846  0D96                     	;# 
   847  0D97                     	;# 
   848  0D98                     	;# 
   849  0D99                     	;# 
   850  0D9A                     	;# 
   851  0D9B                     	;# 
   852  0D9C                     	;# 
   853  0D9D                     	;# 
   854  0D9E                     	;# 
   855  0D9E                     	;# 
   856  0D9F                     	;# 
   857  0DA0                     	;# 
   858  0DA1                     	;# 
   859  0DA1                     	;# 
   860  0DA2                     	;# 
   861  0DA3                     	;# 
   862  0DA4                     	;# 
   863  0DA4                     	;# 
   864  0DA5                     	;# 
   865  0DA6                     	;# 
   866  0DA7                     	;# 
   867  0DA7                     	;# 
   868  0DA8                     	;# 
   869  0DA9                     	;# 
   870  0DAA                     	;# 
   871  0DAB                     	;# 
   872  0DAC                     	;# 
   873  0DAD                     	;# 
   874  0DAE                     	;# 
   875  0DAF                     	;# 
   876  0E0F                     	;# 
   877  0E10                     	;# 
   878  0E11                     	;# 
   879  0E12                     	;# 
   880  0E13                     	;# 
   881  0E14                     	;# 
   882  0E15                     	;# 
   883  0E16                     	;# 
   884  0E17                     	;# 
   885  0E18                     	;# 
   886  0E19                     	;# 
   887  0E1A                     	;# 
   888  0E1B                     	;# 
   889  0E1C                     	;# 
   890  0E1D                     	;# 
   891  0E1E                     	;# 
   892  0E1F                     	;# 
   893  0E20                     	;# 
   894  0E21                     	;# 
   895  0E22                     	;# 
   896  0E23                     	;# 
   897  0E24                     	;# 
   898  0E25                     	;# 
   899  0E26                     	;# 
   900  0E27                     	;# 
   901  0E28                     	;# 
   902  0E29                     	;# 
   903  0E2A                     	;# 
   904  0E2B                     	;# 
   905  0E2C                     	;# 
   906  0E2D                     	;# 
   907  0E2E                     	;# 
   908  0E90                     	;# 
   909  0E91                     	;# 
   910  0E92                     	;# 
   911  0E94                     	;# 
   912  0E95                     	;# 
   913  0E9C                     	;# 
   914  0E9D                     	;# 
   915  0E9E                     	;# 
   916  0E9F                     	;# 
   917  0EA0                     	;# 
   918  0EA1                     	;# 
   919  0EA2                     	;# 
   920  0EA3                     	;# 
   921  0EA4                     	;# 
   922  0EA5                     	;# 
   923  0EA6                     	;# 
   924  0EA7                     	;# 
   925  0F0F                     	;# 
   926  0F10                     	;# 
   927  0F11                     	;# 
   928  0F12                     	;# 
   929  0F13                     	;# 
   930  0F14                     	;# 
   931  0F15                     	;# 
   932  0F16                     	;# 
   933  0F17                     	;# 
   934  0F18                     	;# 
   935  0F19                     	;# 
   936  0F1A                     	;# 
   937  0F1B                     	;# 
   938  0F1C                     	;# 
   939  0F1D                     	;# 
   940  0F1E                     	;# 
   941  0F1F                     	;# 
   942  0F20                     	;# 
   943  0F21                     	;# 
   944  0F22                     	;# 
   945  0F23                     	;# 
   946  0F24                     	;# 
   947  0F25                     	;# 
   948  0F26                     	;# 
   949  0F27                     	;# 
   950  0F28                     	;# 
   951  0F29                     	;# 
   952  0F2A                     	;# 
   953  0F2B                     	;# 
   954  0F2C                     	;# 
   955  0F2D                     	;# 
   956  0F2E                     	;# 
   957  0F2F                     	;# 
   958  0F30                     	;# 
   959  0F31                     	;# 
   960  0F32                     	;# 
   961  0F33                     	;# 
   962  0F34                     	;# 
   963  0F35                     	;# 
   964  0F36                     	;# 
   965  0F37                     	;# 
   966  0FE4                     	;# 
   967  0FE5                     	;# 
   968  0FE6                     	;# 
   969  0FE7                     	;# 
   970  0FE8                     	;# 
   971  0FE9                     	;# 
   972  0FEA                     	;# 
   973  0FEB                     	;# 
   974  0FED                     	;# 
   975  0FEE                     	;# 
   976  0FEF                     	;# 
   977  0000                     	;# 
   978  0001                     	;# 
   979  0002                     	;# 
   980  0003                     	;# 
   981  0004                     	;# 
   982  0005                     	;# 
   983  0006                     	;# 
   984  0007                     	;# 
   985  0008                     	;# 
   986  0009                     	;# 
   987  000A                     	;# 
   988  000B                     	;# 
   989  000C                     	;# 
   990  000D                     	;# 
   991  000E                     	;# 
   992  0010                     	;# 
   993  0011                     	;# 
   994  0012                     	;# 
   995  0013                     	;# 
   996  0014                     	;# 
   997  0015                     	;# 
   998  0016                     	;# 
   999  0016                     	;# 
  1000  0017                     	;# 
  1001  0018                     	;# 
  1002  0019                     	;# 
  1003  001A                     	;# 
  1004  001A                     	;# 
  1005  001B                     	;# 
  1006  001B                     	;# 
  1007  001C                     	;# 
  1008  001D                     	;# 
  1009  001E                     	;# 
  1010  001F                     	;# 
  1011  008C                     	;# 
  1012  008D                     	;# 
  1013  008E                     	;# 
  1014  0090                     	;# 
  1015  0091                     	;# 
  1016  0092                     	;# 
  1017  0093                     	;# 
  1018  0094                     	;# 
  1019  0095                     	;# 
  1020  0096                     	;# 
  1021  0098                     	;# 
  1022  0099                     	;# 
  1023  009A                     	;# 
  1024  009B                     	;# 
  1025  009B                     	;# 
  1026  009C                     	;# 
  1027  009D                     	;# 
  1028  009E                     	;# 
  1029  009F                     	;# 
  1030  010C                     	;# 
  1031  010D                     	;# 
  1032  010E                     	;# 
  1033  0111                     	;# 
  1034  0112                     	;# 
  1035  0113                     	;# 
  1036  0114                     	;# 
  1037  0115                     	;# 
  1038  0116                     	;# 
  1039  0117                     	;# 
  1040  0118                     	;# 
  1041  0119                     	;# 
  1042  011C                     	;# 
  1043  018C                     	;# 
  1044  018D                     	;# 
  1045  018E                     	;# 
  1046  0191                     	;# 
  1047  0191                     	;# 
  1048  0192                     	;# 
  1049  0193                     	;# 
  1050  0193                     	;# 
  1051  0194                     	;# 
  1052  0195                     	;# 
  1053  0196                     	;# 
  1054  0197                     	;# 
  1055  0199                     	;# 
  1056  0199                     	;# 
  1057  0199                     	;# 
  1058  019A                     	;# 
  1059  019A                     	;# 
  1060  019A                     	;# 
  1061  019B                     	;# 
  1062  019B                     	;# 
  1063  019B                     	;# 
  1064  019B                     	;# 
  1065  019B                     	;# 
  1066  019C                     	;# 
  1067  019C                     	;# 
  1068  019C                     	;# 
  1069  019D                     	;# 
  1070  019D                     	;# 
  1071  019D                     	;# 
  1072  019E                     	;# 
  1073  019E                     	;# 
  1074  019E                     	;# 
  1075  019F                     	;# 
  1076  019F                     	;# 
  1077  019F                     	;# 
  1078  019F                     	;# 
  1079  019F                     	;# 
  1080  020C                     	;# 
  1081  020D                     	;# 
  1082  020E                     	;# 
  1083  0211                     	;# 
  1084  0211                     	;# 
  1085  0212                     	;# 
  1086  0212                     	;# 
  1087  0213                     	;# 
  1088  0213                     	;# 
  1089  0214                     	;# 
  1090  0214                     	;# 
  1091  0215                     	;# 
  1092  0215                     	;# 
  1093  0215                     	;# 
  1094  0215                     	;# 
  1095  0216                     	;# 
  1096  0216                     	;# 
  1097  0217                     	;# 
  1098  0217                     	;# 
  1099  028C                     	;# 
  1100  028D                     	;# 
  1101  028E                     	;# 
  1102  0291                     	;# 
  1103  0291                     	;# 
  1104  0292                     	;# 
  1105  0293                     	;# 
  1106  0294                     	;# 
  1107  0298                     	;# 
  1108  0298                     	;# 
  1109  0299                     	;# 
  1110  029A                     	;# 
  1111  029B                     	;# 
  1112  029E                     	;# 
  1113  030C                     	;# 
  1114  030D                     	;# 
  1115  030E                     	;# 
  1116  038C                     	;# 
  1117  038D                     	;# 
  1118  038E                     	;# 
  1119  0391                     	;# 
  1120  0392                     	;# 
  1121  0393                     	;# 
  1122  0394                     	;# 
  1123  0395                     	;# 
  1124  0396                     	;# 
  1125  0397                     	;# 
  1126  0398                     	;# 
  1127  0399                     	;# 
  1128  040E                     	;# 
  1129  0413                     	;# 
  1130  0413                     	;# 
  1131  0414                     	;# 
  1132  0414                     	;# 
  1133  0415                     	;# 
  1134  0416                     	;# 
  1135  0417                     	;# 
  1136  0418                     	;# 
  1137  041A                     	;# 
  1138  041A                     	;# 
  1139  041B                     	;# 
  1140  041B                     	;# 
  1141  041C                     	;# 
  1142  041D                     	;# 
  1143  041E                     	;# 
  1144  041F                     	;# 
  1145  0493                     	;# 
  1146  0494                     	;# 
  1147  0495                     	;# 
  1148  0496                     	;# 
  1149  049A                     	;# 
  1150  049B                     	;# 
  1151  049C                     	;# 
  1152  049D                     	;# 
  1153  058C                     	;# 
  1154  058C                     	;# 
  1155  058D                     	;# 
  1156  058E                     	;# 
  1157  058E                     	;# 
  1158  058F                     	;# 
  1159  0590                     	;# 
  1160  0590                     	;# 
  1161  0591                     	;# 
  1162  0592                     	;# 
  1163  0592                     	;# 
  1164  0593                     	;# 
  1165  0594                     	;# 
  1166  0594                     	;# 
  1167  0595                     	;# 
  1168  0596                     	;# 
  1169  0596                     	;# 
  1170  0597                     	;# 
  1171  0598                     	;# 
  1172  0599                     	;# 
  1173  059A                     	;# 
  1174  059B                     	;# 
  1175  059B                     	;# 
  1176  059C                     	;# 
  1177  059D                     	;# 
  1178  060C                     	;# 
  1179  060C                     	;# 
  1180  060D                     	;# 
  1181  060E                     	;# 
  1182  060F                     	;# 
  1183  060F                     	;# 
  1184  0610                     	;# 
  1185  0611                     	;# 
  1186  0612                     	;# 
  1187  0613                     	;# 
  1188  0614                     	;# 
  1189  0617                     	;# 
  1190  0617                     	;# 
  1191  0618                     	;# 
  1192  0619                     	;# 
  1193  061A                     	;# 
  1194  061A                     	;# 
  1195  061B                     	;# 
  1196  061C                     	;# 
  1197  0691                     	;# 
  1198  0692                     	;# 
  1199  0693                     	;# 
  1200  0694                     	;# 
  1201  0695                     	;# 
  1202  0696                     	;# 
  1203  0697                     	;# 
  1204  0699                     	;# 
  1205  069A                     	;# 
  1206  0711                     	;# 
  1207  0712                     	;# 
  1208  0713                     	;# 
  1209  0714                     	;# 
  1210  0715                     	;# 
  1211  0718                     	;# 
  1212  0718                     	;# 
  1213  0719                     	;# 
  1214  071A                     	;# 
  1215  071A                     	;# 
  1216  071B                     	;# 
  1217  071C                     	;# 
  1218  071D                     	;# 
  1219  0791                     	;# 
  1220  0791                     	;# 
  1221  0792                     	;# 
  1222  0793                     	;# 
  1223  0793                     	;# 
  1224  0794                     	;# 
  1225  0795                     	;# 
  1226  0795                     	;# 
  1227  0796                     	;# 
  1228  0797                     	;# 
  1229  0797                     	;# 
  1230  0798                     	;# 
  1231  0799                     	;# 
  1232  079A                     	;# 
  1233  080C                     	;# 
  1234  080C                     	;# 
  1235  080D                     	;# 
  1236  080E                     	;# 
  1237  080E                     	;# 
  1238  080F                     	;# 
  1239  0810                     	;# 
  1240  0810                     	;# 
  1241  0811                     	;# 
  1242  0812                     	;# 
  1243  0812                     	;# 
  1244  0813                     	;# 
  1245  0814                     	;# 
  1246  0815                     	;# 
  1247  0816                     	;# 
  1248  0817                     	;# 
  1249  0818                     	;# 
  1250  0819                     	;# 
  1251  081A                     	;# 
  1252  081A                     	;# 
  1253  081B                     	;# 
  1254  081C                     	;# 
  1255  081C                     	;# 
  1256  081D                     	;# 
  1257  088C                     	;# 
  1258  088D                     	;# 
  1259  088E                     	;# 
  1260  088F                     	;# 
  1261  088F                     	;# 
  1262  0890                     	;# 
  1263  0891                     	;# 
  1264  0892                     	;# 
  1265  0893                     	;# 
  1266  0893                     	;# 
  1267  0894                     	;# 
  1268  0895                     	;# 
  1269  0896                     	;# 
  1270  0897                     	;# 
  1271  0897                     	;# 
  1272  0898                     	;# 
  1273  0899                     	;# 
  1274  0D8C                     	;# 
  1275  0D8C                     	;# 
  1276  0D8D                     	;# 
  1277  0D8E                     	;# 
  1278  0D8F                     	;# 
  1279  0D8F                     	;# 
  1280  0D90                     	;# 
  1281  0D91                     	;# 
  1282  0D92                     	;# 
  1283  0D92                     	;# 
  1284  0D93                     	;# 
  1285  0D94                     	;# 
  1286  0D95                     	;# 
  1287  0D95                     	;# 
  1288  0D96                     	;# 
  1289  0D97                     	;# 
  1290  0D98                     	;# 
  1291  0D99                     	;# 
  1292  0D9A                     	;# 
  1293  0D9B                     	;# 
  1294  0D9C                     	;# 
  1295  0D9D                     	;# 
  1296  0D9E                     	;# 
  1297  0D9E                     	;# 
  1298  0D9F                     	;# 
  1299  0DA0                     	;# 
  1300  0DA1                     	;# 
  1301  0DA1                     	;# 
  1302  0DA2                     	;# 
  1303  0DA3                     	;# 
  1304  0DA4                     	;# 
  1305  0DA4                     	;# 
  1306  0DA5                     	;# 
  1307  0DA6                     	;# 
  1308  0DA7                     	;# 
  1309  0DA7                     	;# 
  1310  0DA8                     	;# 
  1311  0DA9                     	;# 
  1312  0DAA                     	;# 
  1313  0DAB                     	;# 
  1314  0DAC                     	;# 
  1315  0DAD                     	;# 
  1316  0DAE                     	;# 
  1317  0DAF                     	;# 
  1318  0E0F                     	;# 
  1319  0E10                     	;# 
  1320  0E11                     	;# 
  1321  0E12                     	;# 
  1322  0E13                     	;# 
  1323  0E14                     	;# 
  1324  0E15                     	;# 
  1325  0E16                     	;# 
  1326  0E17                     	;# 
  1327  0E18                     	;# 
  1328  0E19                     	;# 
  1329  0E1A                     	;# 
  1330  0E1B                     	;# 
  1331  0E1C                     	;# 
  1332  0E1D                     	;# 
  1333  0E1E                     	;# 
  1334  0E1F                     	;# 
  1335  0E20                     	;# 
  1336  0E21                     	;# 
  1337  0E22                     	;# 
  1338  0E23                     	;# 
  1339  0E24                     	;# 
  1340  0E25                     	;# 
  1341  0E26                     	;# 
  1342  0E27                     	;# 
  1343  0E28                     	;# 
  1344  0E29                     	;# 
  1345  0E2A                     	;# 
  1346  0E2B                     	;# 
  1347  0E2C                     	;# 
  1348  0E2D                     	;# 
  1349  0E2E                     	;# 
  1350  0E90                     	;# 
  1351  0E91                     	;# 
  1352  0E92                     	;# 
  1353  0E94                     	;# 
  1354  0E95                     	;# 
  1355  0E9C                     	;# 
  1356  0E9D                     	;# 
  1357  0E9E                     	;# 
  1358  0E9F                     	;# 
  1359  0EA0                     	;# 
  1360  0EA1                     	;# 
  1361  0EA2                     	;# 
  1362  0EA3                     	;# 
  1363  0EA4                     	;# 
  1364  0EA5                     	;# 
  1365  0EA6                     	;# 
  1366  0EA7                     	;# 
  1367  0F0F                     	;# 
  1368  0F10                     	;# 
  1369  0F11                     	;# 
  1370  0F12                     	;# 
  1371  0F13                     	;# 
  1372  0F14                     	;# 
  1373  0F15                     	;# 
  1374  0F16                     	;# 
  1375  0F17                     	;# 
  1376  0F18                     	;# 
  1377  0F19                     	;# 
  1378  0F1A                     	;# 
  1379  0F1B                     	;# 
  1380  0F1C                     	;# 
  1381  0F1D                     	;# 
  1382  0F1E                     	;# 
  1383  0F1F                     	;# 
  1384  0F20                     	;# 
  1385  0F21                     	;# 
  1386  0F22                     	;# 
  1387  0F23                     	;# 
  1388  0F24                     	;# 
  1389  0F25                     	;# 
  1390  0F26                     	;# 
  1391  0F27                     	;# 
  1392  0F28                     	;# 
  1393  0F29                     	;# 
  1394  0F2A                     	;# 
  1395  0F2B                     	;# 
  1396  0F2C                     	;# 
  1397  0F2D                     	;# 
  1398  0F2E                     	;# 
  1399  0F2F                     	;# 
  1400  0F30                     	;# 
  1401  0F31                     	;# 
  1402  0F32                     	;# 
  1403  0F33                     	;# 
  1404  0F34                     	;# 
  1405  0F35                     	;# 
  1406  0F36                     	;# 
  1407  0F37                     	;# 
  1408  0FE4                     	;# 
  1409  0FE5                     	;# 
  1410  0FE6                     	;# 
  1411  0FE7                     	;# 
  1412  0FE8                     	;# 
  1413  0FE9                     	;# 
  1414  0FEA                     	;# 
  1415  0FEB                     	;# 
  1416  0FED                     	;# 
  1417  0FEE                     	;# 
  1418  0FEF                     	;# 
  1419  0000                     	;# 
  1420  0001                     	;# 
  1421  0002                     	;# 
  1422  0003                     	;# 
  1423  0004                     	;# 
  1424  0005                     	;# 
  1425  0006                     	;# 
  1426  0007                     	;# 
  1427  0008                     	;# 
  1428  0009                     	;# 
  1429  000A                     	;# 
  1430  000B                     	;# 
  1431  000C                     	;# 
  1432  000D                     	;# 
  1433  000E                     	;# 
  1434  0010                     	;# 
  1435  0011                     	;# 
  1436  0012                     	;# 
  1437  0013                     	;# 
  1438  0014                     	;# 
  1439  0015                     	;# 
  1440  0016                     	;# 
  1441  0016                     	;# 
  1442  0017                     	;# 
  1443  0018                     	;# 
  1444  0019                     	;# 
  1445  001A                     	;# 
  1446  001A                     	;# 
  1447  001B                     	;# 
  1448  001B                     	;# 
  1449  001C                     	;# 
  1450  001D                     	;# 
  1451  001E                     	;# 
  1452  001F                     	;# 
  1453  008C                     	;# 
  1454  008D                     	;# 
  1455  008E                     	;# 
  1456  0090                     	;# 
  1457  0091                     	;# 
  1458  0092                     	;# 
  1459  0093                     	;# 
  1460  0094                     	;# 
  1461  0095                     	;# 
  1462  0096                     	;# 
  1463  0098                     	;# 
  1464  0099                     	;# 
  1465  009A                     	;# 
  1466  009B                     	;# 
  1467  009B                     	;# 
  1468  009C                     	;# 
  1469  009D                     	;# 
  1470  009E                     	;# 
  1471  009F                     	;# 
  1472  010C                     	;# 
  1473  010D                     	;# 
  1474  010E                     	;# 
  1475  0111                     	;# 
  1476  0112                     	;# 
  1477  0113                     	;# 
  1478  0114                     	;# 
  1479  0115                     	;# 
  1480  0116                     	;# 
  1481  0117                     	;# 
  1482  0118                     	;# 
  1483  0119                     	;# 
  1484  011C                     	;# 
  1485  018C                     	;# 
  1486  018D                     	;# 
  1487  018E                     	;# 
  1488  0191                     	;# 
  1489  0191                     	;# 
  1490  0192                     	;# 
  1491  0193                     	;# 
  1492  0193                     	;# 
  1493  0194                     	;# 
  1494  0195                     	;# 
  1495  0196                     	;# 
  1496  0197                     	;# 
  1497  0199                     	;# 
  1498  0199                     	;# 
  1499  0199                     	;# 
  1500  019A                     	;# 
  1501  019A                     	;# 
  1502  019A                     	;# 
  1503  019B                     	;# 
  1504  019B                     	;# 
  1505  019B                     	;# 
  1506  019B                     	;# 
  1507  019B                     	;# 
  1508  019C                     	;# 
  1509  019C                     	;# 
  1510  019C                     	;# 
  1511  019D                     	;# 
  1512  019D                     	;# 
  1513  019D                     	;# 
  1514  019E                     	;# 
  1515  019E                     	;# 
  1516  019E                     	;# 
  1517  019F                     	;# 
  1518  019F                     	;# 
  1519  019F                     	;# 
  1520  019F                     	;# 
  1521  019F                     	;# 
  1522  020C                     	;# 
  1523  020D                     	;# 
  1524  020E                     	;# 
  1525  0211                     	;# 
  1526  0211                     	;# 
  1527  0212                     	;# 
  1528  0212                     	;# 
  1529  0213                     	;# 
  1530  0213                     	;# 
  1531  0214                     	;# 
  1532  0214                     	;# 
  1533  0215                     	;# 
  1534  0215                     	;# 
  1535  0215                     	;# 
  1536  0215                     	;# 
  1537  0216                     	;# 
  1538  0216                     	;# 
  1539  0217                     	;# 
  1540  0217                     	;# 
  1541  028C                     	;# 
  1542  028D                     	;# 
  1543  028E                     	;# 
  1544  0291                     	;# 
  1545  0291                     	;# 
  1546  0292                     	;# 
  1547  0293                     	;# 
  1548  0294                     	;# 
  1549  0298                     	;# 
  1550  0298                     	;# 
  1551  0299                     	;# 
  1552  029A                     	;# 
  1553  029B                     	;# 
  1554  029E                     	;# 
  1555  030C                     	;# 
  1556  030D                     	;# 
  1557  030E                     	;# 
  1558  038C                     	;# 
  1559  038D                     	;# 
  1560  038E                     	;# 
  1561  0391                     	;# 
  1562  0392                     	;# 
  1563  0393                     	;# 
  1564  0394                     	;# 
  1565  0395                     	;# 
  1566  0396                     	;# 
  1567  0397                     	;# 
  1568  0398                     	;# 
  1569  0399                     	;# 
  1570  040E                     	;# 
  1571  0413                     	;# 
  1572  0413                     	;# 
  1573  0414                     	;# 
  1574  0414                     	;# 
  1575  0415                     	;# 
  1576  0416                     	;# 
  1577  0417                     	;# 
  1578  0418                     	;# 
  1579  041A                     	;# 
  1580  041A                     	;# 
  1581  041B                     	;# 
  1582  041B                     	;# 
  1583  041C                     	;# 
  1584  041D                     	;# 
  1585  041E                     	;# 
  1586  041F                     	;# 
  1587  0493                     	;# 
  1588  0494                     	;# 
  1589  0495                     	;# 
  1590  0496                     	;# 
  1591  049A                     	;# 
  1592  049B                     	;# 
  1593  049C                     	;# 
  1594  049D                     	;# 
  1595  058C                     	;# 
  1596  058C                     	;# 
  1597  058D                     	;# 
  1598  058E                     	;# 
  1599  058E                     	;# 
  1600  058F                     	;# 
  1601  0590                     	;# 
  1602  0590                     	;# 
  1603  0591                     	;# 
  1604  0592                     	;# 
  1605  0592                     	;# 
  1606  0593                     	;# 
  1607  0594                     	;# 
  1608  0594                     	;# 
  1609  0595                     	;# 
  1610  0596                     	;# 
  1611  0596                     	;# 
  1612  0597                     	;# 
  1613  0598                     	;# 
  1614  0599                     	;# 
  1615  059A                     	;# 
  1616  059B                     	;# 
  1617  059B                     	;# 
  1618  059C                     	;# 
  1619  059D                     	;# 
  1620  060C                     	;# 
  1621  060C                     	;# 
  1622  060D                     	;# 
  1623  060E                     	;# 
  1624  060F                     	;# 
  1625  060F                     	;# 
  1626  0610                     	;# 
  1627  0611                     	;# 
  1628  0612                     	;# 
  1629  0613                     	;# 
  1630  0614                     	;# 
  1631  0617                     	;# 
  1632  0617                     	;# 
  1633  0618                     	;# 
  1634  0619                     	;# 
  1635  061A                     	;# 
  1636  061A                     	;# 
  1637  061B                     	;# 
  1638  061C                     	;# 
  1639  0691                     	;# 
  1640  0692                     	;# 
  1641  0693                     	;# 
  1642  0694                     	;# 
  1643  0695                     	;# 
  1644  0696                     	;# 
  1645  0697                     	;# 
  1646  0699                     	;# 
  1647  069A                     	;# 
  1648  0711                     	;# 
  1649  0712                     	;# 
  1650  0713                     	;# 
  1651  0714                     	;# 
  1652  0715                     	;# 
  1653  0718                     	;# 
  1654  0718                     	;# 
  1655  0719                     	;# 
  1656  071A                     	;# 
  1657  071A                     	;# 
  1658  071B                     	;# 
  1659  071C                     	;# 
  1660  071D                     	;# 
  1661  0791                     	;# 
  1662  0791                     	;# 
  1663  0792                     	;# 
  1664  0793                     	;# 
  1665  0793                     	;# 
  1666  0794                     	;# 
  1667  0795                     	;# 
  1668  0795                     	;# 
  1669  0796                     	;# 
  1670  0797                     	;# 
  1671  0797                     	;# 
  1672  0798                     	;# 
  1673  0799                     	;# 
  1674  079A                     	;# 
  1675  080C                     	;# 
  1676  080C                     	;# 
  1677  080D                     	;# 
  1678  080E                     	;# 
  1679  080E                     	;# 
  1680  080F                     	;# 
  1681  0810                     	;# 
  1682  0810                     	;# 
  1683  0811                     	;# 
  1684  0812                     	;# 
  1685  0812                     	;# 
  1686  0813                     	;# 
  1687  0814                     	;# 
  1688  0815                     	;# 
  1689  0816                     	;# 
  1690  0817                     	;# 
  1691  0818                     	;# 
  1692  0819                     	;# 
  1693  081A                     	;# 
  1694  081A                     	;# 
  1695  081B                     	;# 
  1696  081C                     	;# 
  1697  081C                     	;# 
  1698  081D                     	;# 
  1699  088C                     	;# 
  1700  088D                     	;# 
  1701  088E                     	;# 
  1702  088F                     	;# 
  1703  088F                     	;# 
  1704  0890                     	;# 
  1705  0891                     	;# 
  1706  0892                     	;# 
  1707  0893                     	;# 
  1708  0893                     	;# 
  1709  0894                     	;# 
  1710  0895                     	;# 
  1711  0896                     	;# 
  1712  0897                     	;# 
  1713  0897                     	;# 
  1714  0898                     	;# 
  1715  0899                     	;# 
  1716  0D8C                     	;# 
  1717  0D8C                     	;# 
  1718  0D8D                     	;# 
  1719  0D8E                     	;# 
  1720  0D8F                     	;# 
  1721  0D8F                     	;# 
  1722  0D90                     	;# 
  1723  0D91                     	;# 
  1724  0D92                     	;# 
  1725  0D92                     	;# 
  1726  0D93                     	;# 
  1727  0D94                     	;# 
  1728  0D95                     	;# 
  1729  0D95                     	;# 
  1730  0D96                     	;# 
  1731  0D97                     	;# 
  1732  0D98                     	;# 
  1733  0D99                     	;# 
  1734  0D9A                     	;# 
  1735  0D9B                     	;# 
  1736  0D9C                     	;# 
  1737  0D9D                     	;# 
  1738  0D9E                     	;# 
  1739  0D9E                     	;# 
  1740  0D9F                     	;# 
  1741  0DA0                     	;# 
  1742  0DA1                     	;# 
  1743  0DA1                     	;# 
  1744  0DA2                     	;# 
  1745  0DA3                     	;# 
  1746  0DA4                     	;# 
  1747  0DA4                     	;# 
  1748  0DA5                     	;# 
  1749  0DA6                     	;# 
  1750  0DA7                     	;# 
  1751  0DA7                     	;# 
  1752  0DA8                     	;# 
  1753  0DA9                     	;# 
  1754  0DAA                     	;# 
  1755  0DAB                     	;# 
  1756  0DAC                     	;# 
  1757  0DAD                     	;# 
  1758  0DAE                     	;# 
  1759  0DAF                     	;# 
  1760  0E0F                     	;# 
  1761  0E10                     	;# 
  1762  0E11                     	;# 
  1763  0E12                     	;# 
  1764  0E13                     	;# 
  1765  0E14                     	;# 
  1766  0E15                     	;# 
  1767  0E16                     	;# 
  1768  0E17                     	;# 
  1769  0E18                     	;# 
  1770  0E19                     	;# 
  1771  0E1A                     	;# 
  1772  0E1B                     	;# 
  1773  0E1C                     	;# 
  1774  0E1D                     	;# 
  1775  0E1E                     	;# 
  1776  0E1F                     	;# 
  1777  0E20                     	;# 
  1778  0E21                     	;# 
  1779  0E22                     	;# 
  1780  0E23                     	;# 
  1781  0E24                     	;# 
  1782  0E25                     	;# 
  1783  0E26                     	;# 
  1784  0E27                     	;# 
  1785  0E28                     	;# 
  1786  0E29                     	;# 
  1787  0E2A                     	;# 
  1788  0E2B                     	;# 
  1789  0E2C                     	;# 
  1790  0E2D                     	;# 
  1791  0E2E                     	;# 
  1792  0E90                     	;# 
  1793  0E91                     	;# 
  1794  0E92                     	;# 
  1795  0E94                     	;# 
  1796  0E95                     	;# 
  1797  0E9C                     	;# 
  1798  0E9D                     	;# 
  1799  0E9E                     	;# 
  1800  0E9F                     	;# 
  1801  0EA0                     	;# 
  1802  0EA1                     	;# 
  1803  0EA2                     	;# 
  1804  0EA3                     	;# 
  1805  0EA4                     	;# 
  1806  0EA5                     	;# 
  1807  0EA6                     	;# 
  1808  0EA7                     	;# 
  1809  0F0F                     	;# 
  1810  0F10                     	;# 
  1811  0F11                     	;# 
  1812  0F12                     	;# 
  1813  0F13                     	;# 
  1814  0F14                     	;# 
  1815  0F15                     	;# 
  1816  0F16                     	;# 
  1817  0F17                     	;# 
  1818  0F18                     	;# 
  1819  0F19                     	;# 
  1820  0F1A                     	;# 
  1821  0F1B                     	;# 
  1822  0F1C                     	;# 
  1823  0F1D                     	;# 
  1824  0F1E                     	;# 
  1825  0F1F                     	;# 
  1826  0F20                     	;# 
  1827  0F21                     	;# 
  1828  0F22                     	;# 
  1829  0F23                     	;# 
  1830  0F24                     	;# 
  1831  0F25                     	;# 
  1832  0F26                     	;# 
  1833  0F27                     	;# 
  1834  0F28                     	;# 
  1835  0F29                     	;# 
  1836  0F2A                     	;# 
  1837  0F2B                     	;# 
  1838  0F2C                     	;# 
  1839  0F2D                     	;# 
  1840  0F2E                     	;# 
  1841  0F2F                     	;# 
  1842  0F30                     	;# 
  1843  0F31                     	;# 
  1844  0F32                     	;# 
  1845  0F33                     	;# 
  1846  0F34                     	;# 
  1847  0F35                     	;# 
  1848  0F36                     	;# 
  1849  0F37                     	;# 
  1850  0FE4                     	;# 
  1851  0FE5                     	;# 
  1852  0FE6                     	;# 
  1853  0FE7                     	;# 
  1854  0FE8                     	;# 
  1855  0FE9                     	;# 
  1856  0FEA                     	;# 
  1857  0FEB                     	;# 
  1858  0FED                     	;# 
  1859  0FEE                     	;# 
  1860  0FEF                     	;# 
  1861  0000                     	;# 
  1862  0001                     	;# 
  1863  0002                     	;# 
  1864  0003                     	;# 
  1865  0004                     	;# 
  1866  0005                     	;# 
  1867  0006                     	;# 
  1868  0007                     	;# 
  1869  0008                     	;# 
  1870  0009                     	;# 
  1871  000A                     	;# 
  1872  000B                     	;# 
  1873  000C                     	;# 
  1874  000D                     	;# 
  1875  000E                     	;# 
  1876  0010                     	;# 
  1877  0011                     	;# 
  1878  0012                     	;# 
  1879  0013                     	;# 
  1880  0014                     	;# 
  1881  0015                     	;# 
  1882  0016                     	;# 
  1883  0016                     	;# 
  1884  0017                     	;# 
  1885  0018                     	;# 
  1886  0019                     	;# 
  1887  001A                     	;# 
  1888  001A                     	;# 
  1889  001B                     	;# 
  1890  001B                     	;# 
  1891  001C                     	;# 
  1892  001D                     	;# 
  1893  001E                     	;# 
  1894  001F                     	;# 
  1895  008C                     	;# 
  1896  008D                     	;# 
  1897  008E                     	;# 
  1898  0090                     	;# 
  1899  0091                     	;# 
  1900  0092                     	;# 
  1901  0093                     	;# 
  1902  0094                     	;# 
  1903  0095                     	;# 
  1904  0096                     	;# 
  1905  0098                     	;# 
  1906  0099                     	;# 
  1907  009A                     	;# 
  1908  009B                     	;# 
  1909  009B                     	;# 
  1910  009C                     	;# 
  1911  009D                     	;# 
  1912  009E                     	;# 
  1913  009F                     	;# 
  1914  010C                     	;# 
  1915  010D                     	;# 
  1916  010E                     	;# 
  1917  0111                     	;# 
  1918  0112                     	;# 
  1919  0113                     	;# 
  1920  0114                     	;# 
  1921  0115                     	;# 
  1922  0116                     	;# 
  1923  0117                     	;# 
  1924  0118                     	;# 
  1925  0119                     	;# 
  1926  011C                     	;# 
  1927  018C                     	;# 
  1928  018D                     	;# 
  1929  018E                     	;# 
  1930  0191                     	;# 
  1931  0191                     	;# 
  1932  0192                     	;# 
  1933  0193                     	;# 
  1934  0193                     	;# 
  1935  0194                     	;# 
  1936  0195                     	;# 
  1937  0196                     	;# 
  1938  0197                     	;# 
  1939  0199                     	;# 
  1940  0199                     	;# 
  1941  0199                     	;# 
  1942  019A                     	;# 
  1943  019A                     	;# 
  1944  019A                     	;# 
  1945  019B                     	;# 
  1946  019B                     	;# 
  1947  019B                     	;# 
  1948  019B                     	;# 
  1949  019B                     	;# 
  1950  019C                     	;# 
  1951  019C                     	;# 
  1952  019C                     	;# 
  1953  019D                     	;# 
  1954  019D                     	;# 
  1955  019D                     	;# 
  1956  019E                     	;# 
  1957  019E                     	;# 
  1958  019E                     	;# 
  1959  019F                     	;# 
  1960  019F                     	;# 
  1961  019F                     	;# 
  1962  019F                     	;# 
  1963  019F                     	;# 
  1964  020C                     	;# 
  1965  020D                     	;# 
  1966  020E                     	;# 
  1967  0211                     	;# 
  1968  0211                     	;# 
  1969  0212                     	;# 
  1970  0212                     	;# 
  1971  0213                     	;# 
  1972  0213                     	;# 
  1973  0214                     	;# 
  1974  0214                     	;# 
  1975  0215                     	;# 
  1976  0215                     	;# 
  1977  0215                     	;# 
  1978  0215                     	;# 
  1979  0216                     	;# 
  1980  0216                     	;# 
  1981  0217                     	;# 
  1982  0217                     	;# 
  1983  028C                     	;# 
  1984  028D                     	;# 
  1985  028E                     	;# 
  1986  0291                     	;# 
  1987  0291                     	;# 
  1988  0292                     	;# 
  1989  0293                     	;# 
  1990  0294                     	;# 
  1991  0298                     	;# 
  1992  0298                     	;# 
  1993  0299                     	;# 
  1994  029A                     	;# 
  1995  029B                     	;# 
  1996  029E                     	;# 
  1997  030C                     	;# 
  1998  030D                     	;# 
  1999  030E                     	;# 
  2000  038C                     	;# 
  2001  038D                     	;# 
  2002  038E                     	;# 
  2003  0391                     	;# 
  2004  0392                     	;# 
  2005  0393                     	;# 
  2006  0394                     	;# 
  2007  0395                     	;# 
  2008  0396                     	;# 
  2009  0397                     	;# 
  2010  0398                     	;# 
  2011  0399                     	;# 
  2012  040E                     	;# 
  2013  0413                     	;# 
  2014  0413                     	;# 
  2015  0414                     	;# 
  2016  0414                     	;# 
  2017  0415                     	;# 
  2018  0416                     	;# 
  2019  0417                     	;# 
  2020  0418                     	;# 
  2021  041A                     	;# 
  2022  041A                     	;# 
  2023  041B                     	;# 
  2024  041B                     	;# 
  2025  041C                     	;# 
  2026  041D                     	;# 
  2027  041E                     	;# 
  2028  041F                     	;# 
  2029  0493                     	;# 
  2030  0494                     	;# 
  2031  0495                     	;# 
  2032  0496                     	;# 
  2033  049A                     	;# 
  2034  049B                     	;# 
  2035  049C                     	;# 
  2036  049D                     	;# 
  2037  058C                     	;# 
  2038  058C                     	;# 
  2039  058D                     	;# 
  2040  058E                     	;# 
  2041  058E                     	;# 
  2042  058F                     	;# 
  2043  0590                     	;# 
  2044  0590                     	;# 
  2045  0591                     	;# 
  2046  0592                     	;# 
  2047  0592                     	;# 
  2048  0593                     	;# 
  2049  0594                     	;# 
  2050  0594                     	;# 
  2051  0595                     	;# 
  2052  0596                     	;# 
  2053  0596                     	;# 
  2054  0597                     	;# 
  2055  0598                     	;# 
  2056  0599                     	;# 
  2057  059A                     	;# 
  2058  059B                     	;# 
  2059  059B                     	;# 
  2060  059C                     	;# 
  2061  059D                     	;# 
  2062  060C                     	;# 
  2063  060C                     	;# 
  2064  060D                     	;# 
  2065  060E                     	;# 
  2066  060F                     	;# 
  2067  060F                     	;# 
  2068  0610                     	;# 
  2069  0611                     	;# 
  2070  0612                     	;# 
  2071  0613                     	;# 
  2072  0614                     	;# 
  2073  0617                     	;# 
  2074  0617                     	;# 
  2075  0618                     	;# 
  2076  0619                     	;# 
  2077  061A                     	;# 
  2078  061A                     	;# 
  2079  061B                     	;# 
  2080  061C                     	;# 
  2081  0691                     	;# 
  2082  0692                     	;# 
  2083  0693                     	;# 
  2084  0694                     	;# 
  2085  0695                     	;# 
  2086  0696                     	;# 
  2087  0697                     	;# 
  2088  0699                     	;# 
  2089  069A                     	;# 
  2090  0711                     	;# 
  2091  0712                     	;# 
  2092  0713                     	;# 
  2093  0714                     	;# 
  2094  0715                     	;# 
  2095  0718                     	;# 
  2096  0718                     	;# 
  2097  0719                     	;# 
  2098  071A                     	;# 
  2099  071A                     	;# 
  2100  071B                     	;# 
  2101  071C                     	;# 
  2102  071D                     	;# 
  2103  0791                     	;# 
  2104  0791                     	;# 
  2105  0792                     	;# 
  2106  0793                     	;# 
  2107  0793                     	;# 
  2108  0794                     	;# 
  2109  0795                     	;# 
  2110  0795                     	;# 
  2111  0796                     	;# 
  2112  0797                     	;# 
  2113  0797                     	;# 
  2114  0798                     	;# 
  2115  0799                     	;# 
  2116  079A                     	;# 
  2117  080C                     	;# 
  2118  080C                     	;# 
  2119  080D                     	;# 
  2120  080E                     	;# 
  2121  080E                     	;# 
  2122  080F                     	;# 
  2123  0810                     	;# 
  2124  0810                     	;# 
  2125  0811                     	;# 
  2126  0812                     	;# 
  2127  0812                     	;# 
  2128  0813                     	;# 
  2129  0814                     	;# 
  2130  0815                     	;# 
  2131  0816                     	;# 
  2132  0817                     	;# 
  2133  0818                     	;# 
  2134  0819                     	;# 
  2135  081A                     	;# 
  2136  081A                     	;# 
  2137  081B                     	;# 
  2138  081C                     	;# 
  2139  081C                     	;# 
  2140  081D                     	;# 
  2141  088C                     	;# 
  2142  088D                     	;# 
  2143  088E                     	;# 
  2144  088F                     	;# 
  2145  088F                     	;# 
  2146  0890                     	;# 
  2147  0891                     	;# 
  2148  0892                     	;# 
  2149  0893                     	;# 
  2150  0893                     	;# 
  2151  0894                     	;# 
  2152  0895                     	;# 
  2153  0896                     	;# 
  2154  0897                     	;# 
  2155  0897                     	;# 
  2156  0898                     	;# 
  2157  0899                     	;# 
  2158  0D8C                     	;# 
  2159  0D8C                     	;# 
  2160  0D8D                     	;# 
  2161  0D8E                     	;# 
  2162  0D8F                     	;# 
  2163  0D8F                     	;# 
  2164  0D90                     	;# 
  2165  0D91                     	;# 
  2166  0D92                     	;# 
  2167  0D92                     	;# 
  2168  0D93                     	;# 
  2169  0D94                     	;# 
  2170  0D95                     	;# 
  2171  0D95                     	;# 
  2172  0D96                     	;# 
  2173  0D97                     	;# 
  2174  0D98                     	;# 
  2175  0D99                     	;# 
  2176  0D9A                     	;# 
  2177  0D9B                     	;# 
  2178  0D9C                     	;# 
  2179  0D9D                     	;# 
  2180  0D9E                     	;# 
  2181  0D9E                     	;# 
  2182  0D9F                     	;# 
  2183  0DA0                     	;# 
  2184  0DA1                     	;# 
  2185  0DA1                     	;# 
  2186  0DA2                     	;# 
  2187  0DA3                     	;# 
  2188  0DA4                     	;# 
  2189  0DA4                     	;# 
  2190  0DA5                     	;# 
  2191  0DA6                     	;# 
  2192  0DA7                     	;# 
  2193  0DA7                     	;# 
  2194  0DA8                     	;# 
  2195  0DA9                     	;# 
  2196  0DAA                     	;# 
  2197  0DAB                     	;# 
  2198  0DAC                     	;# 
  2199  0DAD                     	;# 
  2200  0DAE                     	;# 
  2201  0DAF                     	;# 
  2202  0E0F                     	;# 
  2203  0E10                     	;# 
  2204  0E11                     	;# 
  2205  0E12                     	;# 
  2206  0E13                     	;# 
  2207  0E14                     	;# 
  2208  0E15                     	;# 
  2209  0E16                     	;# 
  2210  0E17                     	;# 
  2211  0E18                     	;# 
  2212  0E19                     	;# 
  2213  0E1A                     	;# 
  2214  0E1B                     	;# 
  2215  0E1C                     	;# 
  2216  0E1D                     	;# 
  2217  0E1E                     	;# 
  2218  0E1F                     	;# 
  2219  0E20                     	;# 
  2220  0E21                     	;# 
  2221  0E22                     	;# 
  2222  0E23                     	;# 
  2223  0E24                     	;# 
  2224  0E25                     	;# 
  2225  0E26                     	;# 
  2226  0E27                     	;# 
  2227  0E28                     	;# 
  2228  0E29                     	;# 
  2229  0E2A                     	;# 
  2230  0E2B                     	;# 
  2231  0E2C                     	;# 
  2232  0E2D                     	;# 
  2233  0E2E                     	;# 
  2234  0E90                     	;# 
  2235  0E91                     	;# 
  2236  0E92                     	;# 
  2237  0E94                     	;# 
  2238  0E95                     	;# 
  2239  0E9C                     	;# 
  2240  0E9D                     	;# 
  2241  0E9E                     	;# 
  2242  0E9F                     	;# 
  2243  0EA0                     	;# 
  2244  0EA1                     	;# 
  2245  0EA2                     	;# 
  2246  0EA3                     	;# 
  2247  0EA4                     	;# 
  2248  0EA5                     	;# 
  2249  0EA6                     	;# 
  2250  0EA7                     	;# 
  2251  0F0F                     	;# 
  2252  0F10                     	;# 
  2253  0F11                     	;# 
  2254  0F12                     	;# 
  2255  0F13                     	;# 
  2256  0F14                     	;# 
  2257  0F15                     	;# 
  2258  0F16                     	;# 
  2259  0F17                     	;# 
  2260  0F18                     	;# 
  2261  0F19                     	;# 
  2262  0F1A                     	;# 
  2263  0F1B                     	;# 
  2264  0F1C                     	;# 
  2265  0F1D                     	;# 
  2266  0F1E                     	;# 
  2267  0F1F                     	;# 
  2268  0F20                     	;# 
  2269  0F21                     	;# 
  2270  0F22                     	;# 
  2271  0F23                     	;# 
  2272  0F24                     	;# 
  2273  0F25                     	;# 
  2274  0F26                     	;# 
  2275  0F27                     	;# 
  2276  0F28                     	;# 
  2277  0F29                     	;# 
  2278  0F2A                     	;# 
  2279  0F2B                     	;# 
  2280  0F2C                     	;# 
  2281  0F2D                     	;# 
  2282  0F2E                     	;# 
  2283  0F2F                     	;# 
  2284  0F30                     	;# 
  2285  0F31                     	;# 
  2286  0F32                     	;# 
  2287  0F33                     	;# 
  2288  0F34                     	;# 
  2289  0F35                     	;# 
  2290  0F36                     	;# 
  2291  0F37                     	;# 
  2292  0FE4                     	;# 
  2293  0FE5                     	;# 
  2294  0FE6                     	;# 
  2295  0FE7                     	;# 
  2296  0FE8                     	;# 
  2297  0FE9                     	;# 
  2298  0FEA                     	;# 
  2299  0FEB                     	;# 
  2300  0FED                     	;# 
  2301  0FEE                     	;# 
  2302  0FEF                     	;# 
  2303  0000                     	;# 
  2304  0001                     	;# 
  2305  0002                     	;# 
  2306  0003                     	;# 
  2307  0004                     	;# 
  2308  0005                     	;# 
  2309  0006                     	;# 
  2310  0007                     	;# 
  2311  0008                     	;# 
  2312  0009                     	;# 
  2313  000A                     	;# 
  2314  000B                     	;# 
  2315  000C                     	;# 
  2316  000D                     	;# 
  2317  000E                     	;# 
  2318  0010                     	;# 
  2319  0011                     	;# 
  2320  0012                     	;# 
  2321  0013                     	;# 
  2322  0014                     	;# 
  2323  0015                     	;# 
  2324  0016                     	;# 
  2325  0016                     	;# 
  2326  0017                     	;# 
  2327  0018                     	;# 
  2328  0019                     	;# 
  2329  001A                     	;# 
  2330  001A                     	;# 
  2331  001B                     	;# 
  2332  001B                     	;# 
  2333  001C                     	;# 
  2334  001D                     	;# 
  2335  001E                     	;# 
  2336  001F                     	;# 
  2337  008C                     	;# 
  2338  008D                     	;# 
  2339  008E                     	;# 
  2340  0090                     	;# 
  2341  0091                     	;# 
  2342  0092                     	;# 
  2343  0093                     	;# 
  2344  0094                     	;# 
  2345  0095                     	;# 
  2346  0096                     	;# 
  2347  0098                     	;# 
  2348  0099                     	;# 
  2349  009A                     	;# 
  2350  009B                     	;# 
  2351  009B                     	;# 
  2352  009C                     	;# 
  2353  009D                     	;# 
  2354  009E                     	;# 
  2355  009F                     	;# 
  2356  010C                     	;# 
  2357  010D                     	;# 
  2358  010E                     	;# 
  2359  0111                     	;# 
  2360  0112                     	;# 
  2361  0113                     	;# 
  2362  0114                     	;# 
  2363  0115                     	;# 
  2364  0116                     	;# 
  2365  0117                     	;# 
  2366  0118                     	;# 
  2367  0119                     	;# 
  2368  011C                     	;# 
  2369  018C                     	;# 
  2370  018D                     	;# 
  2371  018E                     	;# 
  2372  0191                     	;# 
  2373  0191                     	;# 
  2374  0192                     	;# 
  2375  0193                     	;# 
  2376  0193                     	;# 
  2377  0194                     	;# 
  2378  0195                     	;# 
  2379  0196                     	;# 
  2380  0197                     	;# 
  2381  0199                     	;# 
  2382  0199                     	;# 
  2383  0199                     	;# 
  2384  019A                     	;# 
  2385  019A                     	;# 
  2386  019A                     	;# 
  2387  019B                     	;# 
  2388  019B                     	;# 
  2389  019B                     	;# 
  2390  019B                     	;# 
  2391  019B                     	;# 
  2392  019C                     	;# 
  2393  019C                     	;# 
  2394  019C                     	;# 
  2395  019D                     	;# 
  2396  019D                     	;# 
  2397  019D                     	;# 
  2398  019E                     	;# 
  2399  019E                     	;# 
  2400  019E                     	;# 
  2401  019F                     	;# 
  2402  019F                     	;# 
  2403  019F                     	;# 
  2404  019F                     	;# 
  2405  019F                     	;# 
  2406  020C                     	;# 
  2407  020D                     	;# 
  2408  020E                     	;# 
  2409  0211                     	;# 
  2410  0211                     	;# 
  2411  0212                     	;# 
  2412  0212                     	;# 
  2413  0213                     	;# 
  2414  0213                     	;# 
  2415  0214                     	;# 
  2416  0214                     	;# 
  2417  0215                     	;# 
  2418  0215                     	;# 
  2419  0215                     	;# 
  2420  0215                     	;# 
  2421  0216                     	;# 
  2422  0216                     	;# 
  2423  0217                     	;# 
  2424  0217                     	;# 
  2425  028C                     	;# 
  2426  028D                     	;# 
  2427  028E                     	;# 
  2428  0291                     	;# 
  2429  0291                     	;# 
  2430  0292                     	;# 
  2431  0293                     	;# 
  2432  0294                     	;# 
  2433  0298                     	;# 
  2434  0298                     	;# 
  2435  0299                     	;# 
  2436  029A                     	;# 
  2437  029B                     	;# 
  2438  029E                     	;# 
  2439  030C                     	;# 
  2440  030D                     	;# 
  2441  030E                     	;# 
  2442  038C                     	;# 
  2443  038D                     	;# 
  2444  038E                     	;# 
  2445  0391                     	;# 
  2446  0392                     	;# 
  2447  0393                     	;# 
  2448  0394                     	;# 
  2449  0395                     	;# 
  2450  0396                     	;# 
  2451  0397                     	;# 
  2452  0398                     	;# 
  2453  0399                     	;# 
  2454  040E                     	;# 
  2455  0413                     	;# 
  2456  0413                     	;# 
  2457  0414                     	;# 
  2458  0414                     	;# 
  2459  0415                     	;# 
  2460  0416                     	;# 
  2461  0417                     	;# 
  2462  0418                     	;# 
  2463  041A                     	;# 
  2464  041A                     	;# 
  2465  041B                     	;# 
  2466  041B                     	;# 
  2467  041C                     	;# 
  2468  041D                     	;# 
  2469  041E                     	;# 
  2470  041F                     	;# 
  2471  0493                     	;# 
  2472  0494                     	;# 
  2473  0495                     	;# 
  2474  0496                     	;# 
  2475  049A                     	;# 
  2476  049B                     	;# 
  2477  049C                     	;# 
  2478  049D                     	;# 
  2479  058C                     	;# 
  2480  058C                     	;# 
  2481  058D                     	;# 
  2482  058E                     	;# 
  2483  058E                     	;# 
  2484  058F                     	;# 
  2485  0590                     	;# 
  2486  0590                     	;# 
  2487  0591                     	;# 
  2488  0592                     	;# 
  2489  0592                     	;# 
  2490  0593                     	;# 
  2491  0594                     	;# 
  2492  0594                     	;# 
  2493  0595                     	;# 
  2494  0596                     	;# 
  2495  0596                     	;# 
  2496  0597                     	;# 
  2497  0598                     	;# 
  2498  0599                     	;# 
  2499  059A                     	;# 
  2500  059B                     	;# 
  2501  059B                     	;# 
  2502  059C                     	;# 
  2503  059D                     	;# 
  2504  060C                     	;# 
  2505  060C                     	;# 
  2506  060D                     	;# 
  2507  060E                     	;# 
  2508  060F                     	;# 
  2509  060F                     	;# 
  2510  0610                     	;# 
  2511  0611                     	;# 
  2512  0612                     	;# 
  2513  0613                     	;# 
  2514  0614                     	;# 
  2515  0617                     	;# 
  2516  0617                     	;# 
  2517  0618                     	;# 
  2518  0619                     	;# 
  2519  061A                     	;# 
  2520  061A                     	;# 
  2521  061B                     	;# 
  2522  061C                     	;# 
  2523  0691                     	;# 
  2524  0692                     	;# 
  2525  0693                     	;# 
  2526  0694                     	;# 
  2527  0695                     	;# 
  2528  0696                     	;# 
  2529  0697                     	;# 
  2530  0699                     	;# 
  2531  069A                     	;# 
  2532  0711                     	;# 
  2533  0712                     	;# 
  2534  0713                     	;# 
  2535  0714                     	;# 
  2536  0715                     	;# 
  2537  0718                     	;# 
  2538  0718                     	;# 
  2539  0719                     	;# 
  2540  071A                     	;# 
  2541  071A                     	;# 
  2542  071B                     	;# 
  2543  071C                     	;# 
  2544  071D                     	;# 
  2545  0791                     	;# 
  2546  0791                     	;# 
  2547  0792                     	;# 
  2548  0793                     	;# 
  2549  0793                     	;# 
  2550  0794                     	;# 
  2551  0795                     	;# 
  2552  0795                     	;# 
  2553  0796                     	;# 
  2554  0797                     	;# 
  2555  0797                     	;# 
  2556  0798                     	;# 
  2557  0799                     	;# 
  2558  079A                     	;# 
  2559  080C                     	;# 
  2560  080C                     	;# 
  2561  080D                     	;# 
  2562  080E                     	;# 
  2563  080E                     	;# 
  2564  080F                     	;# 
  2565  0810                     	;# 
  2566  0810                     	;# 
  2567  0811                     	;# 
  2568  0812                     	;# 
  2569  0812                     	;# 
  2570  0813                     	;# 
  2571  0814                     	;# 
  2572  0815                     	;# 
  2573  0816                     	;# 
  2574  0817                     	;# 
  2575  0818                     	;# 
  2576  0819                     	;# 
  2577  081A                     	;# 
  2578  081A                     	;# 
  2579  081B                     	;# 
  2580  081C                     	;# 
  2581  081C                     	;# 
  2582  081D                     	;# 
  2583  088C                     	;# 
  2584  088D                     	;# 
  2585  088E                     	;# 
  2586  088F                     	;# 
  2587  088F                     	;# 
  2588  0890                     	;# 
  2589  0891                     	;# 
  2590  0892                     	;# 
  2591  0893                     	;# 
  2592  0893                     	;# 
  2593  0894                     	;# 
  2594  0895                     	;# 
  2595  0896                     	;# 
  2596  0897                     	;# 
  2597  0897                     	;# 
  2598  0898                     	;# 
  2599  0899                     	;# 
  2600  0D8C                     	;# 
  2601  0D8C                     	;# 
  2602  0D8D                     	;# 
  2603  0D8E                     	;# 
  2604  0D8F                     	;# 
  2605  0D8F                     	;# 
  2606  0D90                     	;# 
  2607  0D91                     	;# 
  2608  0D92                     	;# 
  2609  0D92                     	;# 
  2610  0D93                     	;# 
  2611  0D94                     	;# 
  2612  0D95                     	;# 
  2613  0D95                     	;# 
  2614  0D96                     	;# 
  2615  0D97                     	;# 
  2616  0D98                     	;# 
  2617  0D99                     	;# 
  2618  0D9A                     	;# 
  2619  0D9B                     	;# 
  2620  0D9C                     	;# 
  2621  0D9D                     	;# 
  2622  0D9E                     	;# 
  2623  0D9E                     	;# 
  2624  0D9F                     	;# 
  2625  0DA0                     	;# 
  2626  0DA1                     	;# 
  2627  0DA1                     	;# 
  2628  0DA2                     	;# 
  2629  0DA3                     	;# 
  2630  0DA4                     	;# 
  2631  0DA4                     	;# 
  2632  0DA5                     	;# 
  2633  0DA6                     	;# 
  2634  0DA7                     	;# 
  2635  0DA7                     	;# 
  2636  0DA8                     	;# 
  2637  0DA9                     	;# 
  2638  0DAA                     	;# 
  2639  0DAB                     	;# 
  2640  0DAC                     	;# 
  2641  0DAD                     	;# 
  2642  0DAE                     	;# 
  2643  0DAF                     	;# 
  2644  0E0F                     	;# 
  2645  0E10                     	;# 
  2646  0E11                     	;# 
  2647  0E12                     	;# 
  2648  0E13                     	;# 
  2649  0E14                     	;# 
  2650  0E15                     	;# 
  2651  0E16                     	;# 
  2652  0E17                     	;# 
  2653  0E18                     	;# 
  2654  0E19                     	;# 
  2655  0E1A                     	;# 
  2656  0E1B                     	;# 
  2657  0E1C                     	;# 
  2658  0E1D                     	;# 
  2659  0E1E                     	;# 
  2660  0E1F                     	;# 
  2661  0E20                     	;# 
  2662  0E21                     	;# 
  2663  0E22                     	;# 
  2664  0E23                     	;# 
  2665  0E24                     	;# 
  2666  0E25                     	;# 
  2667  0E26                     	;# 
  2668  0E27                     	;# 
  2669  0E28                     	;# 
  2670  0E29                     	;# 
  2671  0E2A                     	;# 
  2672  0E2B                     	;# 
  2673  0E2C                     	;# 
  2674  0E2D                     	;# 
  2675  0E2E                     	;# 
  2676  0E90                     	;# 
  2677  0E91                     	;# 
  2678  0E92                     	;# 
  2679  0E94                     	;# 
  2680  0E95                     	;# 
  2681  0E9C                     	;# 
  2682  0E9D                     	;# 
  2683  0E9E                     	;# 
  2684  0E9F                     	;# 
  2685  0EA0                     	;# 
  2686  0EA1                     	;# 
  2687  0EA2                     	;# 
  2688  0EA3                     	;# 
  2689  0EA4                     	;# 
  2690  0EA5                     	;# 
  2691  0EA6                     	;# 
  2692  0EA7                     	;# 
  2693  0F0F                     	;# 
  2694  0F10                     	;# 
  2695  0F11                     	;# 
  2696  0F12                     	;# 
  2697  0F13                     	;# 
  2698  0F14                     	;# 
  2699  0F15                     	;# 
  2700  0F16                     	;# 
  2701  0F17                     	;# 
  2702  0F18                     	;# 
  2703  0F19                     	;# 
  2704  0F1A                     	;# 
  2705  0F1B                     	;# 
  2706  0F1C                     	;# 
  2707  0F1D                     	;# 
  2708  0F1E                     	;# 
  2709  0F1F                     	;# 
  2710  0F20                     	;# 
  2711  0F21                     	;# 
  2712  0F22                     	;# 
  2713  0F23                     	;# 
  2714  0F24                     	;# 
  2715  0F25                     	;# 
  2716  0F26                     	;# 
  2717  0F27                     	;# 
  2718  0F28                     	;# 
  2719  0F29                     	;# 
  2720  0F2A                     	;# 
  2721  0F2B                     	;# 
  2722  0F2C                     	;# 
  2723  0F2D                     	;# 
  2724  0F2E                     	;# 
  2725  0F2F                     	;# 
  2726  0F30                     	;# 
  2727  0F31                     	;# 
  2728  0F32                     	;# 
  2729  0F33                     	;# 
  2730  0F34                     	;# 
  2731  0F35                     	;# 
  2732  0F36                     	;# 
  2733  0F37                     	;# 
  2734  0FE4                     	;# 
  2735  0FE5                     	;# 
  2736  0FE6                     	;# 
  2737  0FE7                     	;# 
  2738  0FE8                     	;# 
  2739  0FE9                     	;# 
  2740  0FEA                     	;# 
  2741  0FEB                     	;# 
  2742  0FED                     	;# 
  2743  0FEE                     	;# 
  2744  0FEF                     	;# 
  2745  0000                     	;# 
  2746  0001                     	;# 
  2747  0002                     	;# 
  2748  0003                     	;# 
  2749  0004                     	;# 
  2750  0005                     	;# 
  2751  0006                     	;# 
  2752  0007                     	;# 
  2753  0008                     	;# 
  2754  0009                     	;# 
  2755  000A                     	;# 
  2756  000B                     	;# 
  2757  000C                     	;# 
  2758  000D                     	;# 
  2759  000E                     	;# 
  2760  0010                     	;# 
  2761  0011                     	;# 
  2762  0012                     	;# 
  2763  0013                     	;# 
  2764  0014                     	;# 
  2765  0015                     	;# 
  2766  0016                     	;# 
  2767  0016                     	;# 
  2768  0017                     	;# 
  2769  0018                     	;# 
  2770  0019                     	;# 
  2771  001A                     	;# 
  2772  001A                     	;# 
  2773  001B                     	;# 
  2774  001B                     	;# 
  2775  001C                     	;# 
  2776  001D                     	;# 
  2777  001E                     	;# 
  2778  001F                     	;# 
  2779  008C                     	;# 
  2780  008D                     	;# 
  2781  008E                     	;# 
  2782  0090                     	;# 
  2783  0091                     	;# 
  2784  0092                     	;# 
  2785  0093                     	;# 
  2786  0094                     	;# 
  2787  0095                     	;# 
  2788  0096                     	;# 
  2789  0098                     	;# 
  2790  0099                     	;# 
  2791  009A                     	;# 
  2792  009B                     	;# 
  2793  009B                     	;# 
  2794  009C                     	;# 
  2795  009D                     	;# 
  2796  009E                     	;# 
  2797  009F                     	;# 
  2798  010C                     	;# 
  2799  010D                     	;# 
  2800  010E                     	;# 
  2801  0111                     	;# 
  2802  0112                     	;# 
  2803  0113                     	;# 
  2804  0114                     	;# 
  2805  0115                     	;# 
  2806  0116                     	;# 
  2807  0117                     	;# 
  2808  0118                     	;# 
  2809  0119                     	;# 
  2810  011C                     	;# 
  2811  018C                     	;# 
  2812  018D                     	;# 
  2813  018E                     	;# 
  2814  0191                     	;# 
  2815  0191                     	;# 
  2816  0192                     	;# 
  2817  0193                     	;# 
  2818  0193                     	;# 
  2819  0194                     	;# 
  2820  0195                     	;# 
  2821  0196                     	;# 
  2822  0197                     	;# 
  2823  0199                     	;# 
  2824  0199                     	;# 
  2825  0199                     	;# 
  2826  019A                     	;# 
  2827  019A                     	;# 
  2828  019A                     	;# 
  2829  019B                     	;# 
  2830  019B                     	;# 
  2831  019B                     	;# 
  2832  019B                     	;# 
  2833  019B                     	;# 
  2834  019C                     	;# 
  2835  019C                     	;# 
  2836  019C                     	;# 
  2837  019D                     	;# 
  2838  019D                     	;# 
  2839  019D                     	;# 
  2840  019E                     	;# 
  2841  019E                     	;# 
  2842  019E                     	;# 
  2843  019F                     	;# 
  2844  019F                     	;# 
  2845  019F                     	;# 
  2846  019F                     	;# 
  2847  019F                     	;# 
  2848  020C                     	;# 
  2849  020D                     	;# 
  2850  020E                     	;# 
  2851  0211                     	;# 
  2852  0211                     	;# 
  2853  0212                     	;# 
  2854  0212                     	;# 
  2855  0213                     	;# 
  2856  0213                     	;# 
  2857  0214                     	;# 
  2858  0214                     	;# 
  2859  0215                     	;# 
  2860  0215                     	;# 
  2861  0215                     	;# 
  2862  0215                     	;# 
  2863  0216                     	;# 
  2864  0216                     	;# 
  2865  0217                     	;# 
  2866  0217                     	;# 
  2867  028C                     	;# 
  2868  028D                     	;# 
  2869  028E                     	;# 
  2870  0291                     	;# 
  2871  0291                     	;# 
  2872  0292                     	;# 
  2873  0293                     	;# 
  2874  0294                     	;# 
  2875  0298                     	;# 
  2876  0298                     	;# 
  2877  0299                     	;# 
  2878  029A                     	;# 
  2879  029B                     	;# 
  2880  029E                     	;# 
  2881  030C                     	;# 
  2882  030D                     	;# 
  2883  030E                     	;# 
  2884  038C                     	;# 
  2885  038D                     	;# 
  2886  038E                     	;# 
  2887  0391                     	;# 
  2888  0392                     	;# 
  2889  0393                     	;# 
  2890  0394                     	;# 
  2891  0395                     	;# 
  2892  0396                     	;# 
  2893  0397                     	;# 
  2894  0398                     	;# 
  2895  0399                     	;# 
  2896  040E                     	;# 
  2897  0413                     	;# 
  2898  0413                     	;# 
  2899  0414                     	;# 
  2900  0414                     	;# 
  2901  0415                     	;# 
  2902  0416                     	;# 
  2903  0417                     	;# 
  2904  0418                     	;# 
  2905  041A                     	;# 
  2906  041A                     	;# 
  2907  041B                     	;# 
  2908  041B                     	;# 
  2909  041C                     	;# 
  2910  041D                     	;# 
  2911  041E                     	;# 
  2912  041F                     	;# 
  2913  0493                     	;# 
  2914  0494                     	;# 
  2915  0495                     	;# 
  2916  0496                     	;# 
  2917  049A                     	;# 
  2918  049B                     	;# 
  2919  049C                     	;# 
  2920  049D                     	;# 
  2921  058C                     	;# 
  2922  058C                     	;# 
  2923  058D                     	;# 
  2924  058E                     	;# 
  2925  058E                     	;# 
  2926  058F                     	;# 
  2927  0590                     	;# 
  2928  0590                     	;# 
  2929  0591                     	;# 
  2930  0592                     	;# 
  2931  0592                     	;# 
  2932  0593                     	;# 
  2933  0594                     	;# 
  2934  0594                     	;# 
  2935  0595                     	;# 
  2936  0596                     	;# 
  2937  0596                     	;# 
  2938  0597                     	;# 
  2939  0598                     	;# 
  2940  0599                     	;# 
  2941  059A                     	;# 
  2942  059B                     	;# 
  2943  059B                     	;# 
  2944  059C                     	;# 
  2945  059D                     	;# 
  2946  060C                     	;# 
  2947  060C                     	;# 
  2948  060D                     	;# 
  2949  060E                     	;# 
  2950  060F                     	;# 
  2951  060F                     	;# 
  2952  0610                     	;# 
  2953  0611                     	;# 
  2954  0612                     	;# 
  2955  0613                     	;# 
  2956  0614                     	;# 
  2957  0617                     	;# 
  2958  0617                     	;# 
  2959  0618                     	;# 
  2960  0619                     	;# 
  2961  061A                     	;# 
  2962  061A                     	;# 
  2963  061B                     	;# 
  2964  061C                     	;# 
  2965  0691                     	;# 
  2966  0692                     	;# 
  2967  0693                     	;# 
  2968  0694                     	;# 
  2969  0695                     	;# 
  2970  0696                     	;# 
  2971  0697                     	;# 
  2972  0699                     	;# 
  2973  069A                     	;# 
  2974  0711                     	;# 
  2975  0712                     	;# 
  2976  0713                     	;# 
  2977  0714                     	;# 
  2978  0715                     	;# 
  2979  0718                     	;# 
  2980  0718                     	;# 
  2981  0719                     	;# 
  2982  071A                     	;# 
  2983  071A                     	;# 
  2984  071B                     	;# 
  2985  071C                     	;# 
  2986  071D                     	;# 
  2987  0791                     	;# 
  2988  0791                     	;# 
  2989  0792                     	;# 
  2990  0793                     	;# 
  2991  0793                     	;# 
  2992  0794                     	;# 
  2993  0795                     	;# 
  2994  0795                     	;# 
  2995  0796                     	;# 
  2996  0797                     	;# 
  2997  0797                     	;# 
  2998  0798                     	;# 
  2999  0799                     	;# 
  3000  079A                     	;# 
  3001  080C                     	;# 
  3002  080C                     	;# 
  3003  080D                     	;# 
  3004  080E                     	;# 
  3005  080E                     	;# 
  3006  080F                     	;# 
  3007  0810                     	;# 
  3008  0810                     	;# 
  3009  0811                     	;# 
  3010  0812                     	;# 
  3011  0812                     	;# 
  3012  0813                     	;# 
  3013  0814                     	;# 
  3014  0815                     	;# 
  3015  0816                     	;# 
  3016  0817                     	;# 
  3017  0818                     	;# 
  3018  0819                     	;# 
  3019  081A                     	;# 
  3020  081A                     	;# 
  3021  081B                     	;# 
  3022  081C                     	;# 
  3023  081C                     	;# 
  3024  081D                     	;# 
  3025  088C                     	;# 
  3026  088D                     	;# 
  3027  088E                     	;# 
  3028  088F                     	;# 
  3029  088F                     	;# 
  3030  0890                     	;# 
  3031  0891                     	;# 
  3032  0892                     	;# 
  3033  0893                     	;# 
  3034  0893                     	;# 
  3035  0894                     	;# 
  3036  0895                     	;# 
  3037  0896                     	;# 
  3038  0897                     	;# 
  3039  0897                     	;# 
  3040  0898                     	;# 
  3041  0899                     	;# 
  3042  0D8C                     	;# 
  3043  0D8C                     	;# 
  3044  0D8D                     	;# 
  3045  0D8E                     	;# 
  3046  0D8F                     	;# 
  3047  0D8F                     	;# 
  3048  0D90                     	;# 
  3049  0D91                     	;# 
  3050  0D92                     	;# 
  3051  0D92                     	;# 
  3052  0D93                     	;# 
  3053  0D94                     	;# 
  3054  0D95                     	;# 
  3055  0D95                     	;# 
  3056  0D96                     	;# 
  3057  0D97                     	;# 
  3058  0D98                     	;# 
  3059  0D99                     	;# 
  3060  0D9A                     	;# 
  3061  0D9B                     	;# 
  3062  0D9C                     	;# 
  3063  0D9D                     	;# 
  3064  0D9E                     	;# 
  3065  0D9E                     	;# 
  3066  0D9F                     	;# 
  3067  0DA0                     	;# 
  3068  0DA1                     	;# 
  3069  0DA1                     	;# 
  3070  0DA2                     	;# 
  3071  0DA3                     	;# 
  3072  0DA4                     	;# 
  3073  0DA4                     	;# 
  3074  0DA5                     	;# 
  3075  0DA6                     	;# 
  3076  0DA7                     	;# 
  3077  0DA7                     	;# 
  3078  0DA8                     	;# 
  3079  0DA9                     	;# 
  3080  0DAA                     	;# 
  3081  0DAB                     	;# 
  3082  0DAC                     	;# 
  3083  0DAD                     	;# 
  3084  0DAE                     	;# 
  3085  0DAF                     	;# 
  3086  0E0F                     	;# 
  3087  0E10                     	;# 
  3088  0E11                     	;# 
  3089  0E12                     	;# 
  3090  0E13                     	;# 
  3091  0E14                     	;# 
  3092  0E15                     	;# 
  3093  0E16                     	;# 
  3094  0E17                     	;# 
  3095  0E18                     	;# 
  3096  0E19                     	;# 
  3097  0E1A                     	;# 
  3098  0E1B                     	;# 
  3099  0E1C                     	;# 
  3100  0E1D                     	;# 
  3101  0E1E                     	;# 
  3102  0E1F                     	;# 
  3103  0E20                     	;# 
  3104  0E21                     	;# 
  3105  0E22                     	;# 
  3106  0E23                     	;# 
  3107  0E24                     	;# 
  3108  0E25                     	;# 
  3109  0E26                     	;# 
  3110  0E27                     	;# 
  3111  0E28                     	;# 
  3112  0E29                     	;# 
  3113  0E2A                     	;# 
  3114  0E2B                     	;# 
  3115  0E2C                     	;# 
  3116  0E2D                     	;# 
  3117  0E2E                     	;# 
  3118  0E90                     	;# 
  3119  0E91                     	;# 
  3120  0E92                     	;# 
  3121  0E94                     	;# 
  3122  0E95                     	;# 
  3123  0E9C                     	;# 
  3124  0E9D                     	;# 
  3125  0E9E                     	;# 
  3126  0E9F                     	;# 
  3127  0EA0                     	;# 
  3128  0EA1                     	;# 
  3129  0EA2                     	;# 
  3130  0EA3                     	;# 
  3131  0EA4                     	;# 
  3132  0EA5                     	;# 
  3133  0EA6                     	;# 
  3134  0EA7                     	;# 
  3135  0F0F                     	;# 
  3136  0F10                     	;# 
  3137  0F11                     	;# 
  3138  0F12                     	;# 
  3139  0F13                     	;# 
  3140  0F14                     	;# 
  3141  0F15                     	;# 
  3142  0F16                     	;# 
  3143  0F17                     	;# 
  3144  0F18                     	;# 
  3145  0F19                     	;# 
  3146  0F1A                     	;# 
  3147  0F1B                     	;# 
  3148  0F1C                     	;# 
  3149  0F1D                     	;# 
  3150  0F1E                     	;# 
  3151  0F1F                     	;# 
  3152  0F20                     	;# 
  3153  0F21                     	;# 
  3154  0F22                     	;# 
  3155  0F23                     	;# 
  3156  0F24                     	;# 
  3157  0F25                     	;# 
  3158  0F26                     	;# 
  3159  0F27                     	;# 
  3160  0F28                     	;# 
  3161  0F29                     	;# 
  3162  0F2A                     	;# 
  3163  0F2B                     	;# 
  3164  0F2C                     	;# 
  3165  0F2D                     	;# 
  3166  0F2E                     	;# 
  3167  0F2F                     	;# 
  3168  0F30                     	;# 
  3169  0F31                     	;# 
  3170  0F32                     	;# 
  3171  0F33                     	;# 
  3172  0F34                     	;# 
  3173  0F35                     	;# 
  3174  0F36                     	;# 
  3175  0F37                     	;# 
  3176  0FE4                     	;# 
  3177  0FE5                     	;# 
  3178  0FE6                     	;# 
  3179  0FE7                     	;# 
  3180  0FE8                     	;# 
  3181  0FE9                     	;# 
  3182  0FEA                     	;# 
  3183  0FEB                     	;# 
  3184  0FED                     	;# 
  3185  0FEE                     	;# 
  3186  0FEF                     	;# 
  3187  0000                     	;# 
  3188  0001                     	;# 
  3189  0002                     	;# 
  3190  0003                     	;# 
  3191  0004                     	;# 
  3192  0005                     	;# 
  3193  0006                     	;# 
  3194  0007                     	;# 
  3195  0008                     	;# 
  3196  0009                     	;# 
  3197  000A                     	;# 
  3198  000B                     	;# 
  3199  000C                     	;# 
  3200  000D                     	;# 
  3201  000E                     	;# 
  3202  0010                     	;# 
  3203  0011                     	;# 
  3204  0012                     	;# 
  3205  0013                     	;# 
  3206  0014                     	;# 
  3207  0015                     	;# 
  3208  0016                     	;# 
  3209  0016                     	;# 
  3210  0017                     	;# 
  3211  0018                     	;# 
  3212  0019                     	;# 
  3213  001A                     	;# 
  3214  001A                     	;# 
  3215  001B                     	;# 
  3216  001B                     	;# 
  3217  001C                     	;# 
  3218  001D                     	;# 
  3219  001E                     	;# 
  3220  001F                     	;# 
  3221  008C                     	;# 
  3222  008D                     	;# 
  3223  008E                     	;# 
  3224  0090                     	;# 
  3225  0091                     	;# 
  3226  0092                     	;# 
  3227  0093                     	;# 
  3228  0094                     	;# 
  3229  0095                     	;# 
  3230  0096                     	;# 
  3231  0098                     	;# 
  3232  0099                     	;# 
  3233  009A                     	;# 
  3234  009B                     	;# 
  3235  009B                     	;# 
  3236  009C                     	;# 
  3237  009D                     	;# 
  3238  009E                     	;# 
  3239  009F                     	;# 
  3240  010C                     	;# 
  3241  010D                     	;# 
  3242  010E                     	;# 
  3243  0111                     	;# 
  3244  0112                     	;# 
  3245  0113                     	;# 
  3246  0114                     	;# 
  3247  0115                     	;# 
  3248  0116                     	;# 
  3249  0117                     	;# 
  3250  0118                     	;# 
  3251  0119                     	;# 
  3252  011C                     	;# 
  3253  018C                     	;# 
  3254  018D                     	;# 
  3255  018E                     	;# 
  3256  0191                     	;# 
  3257  0191                     	;# 
  3258  0192                     	;# 
  3259  0193                     	;# 
  3260  0193                     	;# 
  3261  0194                     	;# 
  3262  0195                     	;# 
  3263  0196                     	;# 
  3264  0197                     	;# 
  3265  0199                     	;# 
  3266  0199                     	;# 
  3267  0199                     	;# 
  3268  019A                     	;# 
  3269  019A                     	;# 
  3270  019A                     	;# 
  3271  019B                     	;# 
  3272  019B                     	;# 
  3273  019B                     	;# 
  3274  019B                     	;# 
  3275  019B                     	;# 
  3276  019C                     	;# 
  3277  019C                     	;# 
  3278  019C                     	;# 
  3279  019D                     	;# 
  3280  019D                     	;# 
  3281  019D                     	;# 
  3282  019E                     	;# 
  3283  019E                     	;# 
  3284  019E                     	;# 
  3285  019F                     	;# 
  3286  019F                     	;# 
  3287  019F                     	;# 
  3288  019F                     	;# 
  3289  019F                     	;# 
  3290  020C                     	;# 
  3291  020D                     	;# 
  3292  020E                     	;# 
  3293  0211                     	;# 
  3294  0211                     	;# 
  3295  0212                     	;# 
  3296  0212                     	;# 
  3297  0213                     	;# 
  3298  0213                     	;# 
  3299  0214                     	;# 
  3300  0214                     	;# 
  3301  0215                     	;# 
  3302  0215                     	;# 
  3303  0215                     	;# 
  3304  0215                     	;# 
  3305  0216                     	;# 
  3306  0216                     	;# 
  3307  0217                     	;# 
  3308  0217                     	;# 
  3309  028C                     	;# 
  3310  028D                     	;# 
  3311  028E                     	;# 
  3312  0291                     	;# 
  3313  0291                     	;# 
  3314  0292                     	;# 
  3315  0293                     	;# 
  3316  0294                     	;# 
  3317  0298                     	;# 
  3318  0298                     	;# 
  3319  0299                     	;# 
  3320  029A                     	;# 
  3321  029B                     	;# 
  3322  029E                     	;# 
  3323  030C                     	;# 
  3324  030D                     	;# 
  3325  030E                     	;# 
  3326  038C                     	;# 
  3327  038D                     	;# 
  3328  038E                     	;# 
  3329  0391                     	;# 
  3330  0392                     	;# 
  3331  0393                     	;# 
  3332  0394                     	;# 
  3333  0395                     	;# 
  3334  0396                     	;# 
  3335  0397                     	;# 
  3336  0398                     	;# 
  3337  0399                     	;# 
  3338  040E                     	;# 
  3339  0413                     	;# 
  3340  0413                     	;# 
  3341  0414                     	;# 
  3342  0414                     	;# 
  3343  0415                     	;# 
  3344  0416                     	;# 
  3345  0417                     	;# 
  3346  0418                     	;# 
  3347  041A                     	;# 
  3348  041A                     	;# 
  3349  041B                     	;# 
  3350  041B                     	;# 
  3351  041C                     	;# 
  3352  041D                     	;# 
  3353  041E                     	;# 
  3354  041F                     	;# 
  3355  0493                     	;# 
  3356  0494                     	;# 
  3357  0495                     	;# 
  3358  0496                     	;# 
  3359  049A                     	;# 
  3360  049B                     	;# 
  3361  049C                     	;# 
  3362  049D                     	;# 
  3363  058C                     	;# 
  3364  058C                     	;# 
  3365  058D                     	;# 
  3366  058E                     	;# 
  3367  058E                     	;# 
  3368  058F                     	;# 
  3369  0590                     	;# 
  3370  0590                     	;# 
  3371  0591                     	;# 
  3372  0592                     	;# 
  3373  0592                     	;# 
  3374  0593                     	;# 
  3375  0594                     	;# 
  3376  0594                     	;# 
  3377  0595                     	;# 
  3378  0596                     	;# 
  3379  0596                     	;# 
  3380  0597                     	;# 
  3381  0598                     	;# 
  3382  0599                     	;# 
  3383  059A                     	;# 
  3384  059B                     	;# 
  3385  059B                     	;# 
  3386  059C                     	;# 
  3387  059D                     	;# 
  3388  060C                     	;# 
  3389  060C                     	;# 
  3390  060D                     	;# 
  3391  060E                     	;# 
  3392  060F                     	;# 
  3393  060F                     	;# 
  3394  0610                     	;# 
  3395  0611                     	;# 
  3396  0612                     	;# 
  3397  0613                     	;# 
  3398  0614                     	;# 
  3399  0617                     	;# 
  3400  0617                     	;# 
  3401  0618                     	;# 
  3402  0619                     	;# 
  3403  061A                     	;# 
  3404  061A                     	;# 
  3405  061B                     	;# 
  3406  061C                     	;# 
  3407  0691                     	;# 
  3408  0692                     	;# 
  3409  0693                     	;# 
  3410  0694                     	;# 
  3411  0695                     	;# 
  3412  0696                     	;# 
  3413  0697                     	;# 
  3414  0699                     	;# 
  3415  069A                     	;# 
  3416  0711                     	;# 
  3417  0712                     	;# 
  3418  0713                     	;# 
  3419  0714                     	;# 
  3420  0715                     	;# 
  3421  0718                     	;# 
  3422  0718                     	;# 
  3423  0719                     	;# 
  3424  071A                     	;# 
  3425  071A                     	;# 
  3426  071B                     	;# 
  3427  071C                     	;# 
  3428  071D                     	;# 
  3429  0791                     	;# 
  3430  0791                     	;# 
  3431  0792                     	;# 
  3432  0793                     	;# 
  3433  0793                     	;# 
  3434  0794                     	;# 
  3435  0795                     	;# 
  3436  0795                     	;# 
  3437  0796                     	;# 
  3438  0797                     	;# 
  3439  0797                     	;# 
  3440  0798                     	;# 
  3441  0799                     	;# 
  3442  079A                     	;# 
  3443  080C                     	;# 
  3444  080C                     	;# 
  3445  080D                     	;# 
  3446  080E                     	;# 
  3447  080E                     	;# 
  3448  080F                     	;# 
  3449  0810                     	;# 
  3450  0810                     	;# 
  3451  0811                     	;# 
  3452  0812                     	;# 
  3453  0812                     	;# 
  3454  0813                     	;# 
  3455  0814                     	;# 
  3456  0815                     	;# 
  3457  0816                     	;# 
  3458  0817                     	;# 
  3459  0818                     	;# 
  3460  0819                     	;# 
  3461  081A                     	;# 
  3462  081A                     	;# 
  3463  081B                     	;# 
  3464  081C                     	;# 
  3465  081C                     	;# 
  3466  081D                     	;# 
  3467  088C                     	;# 
  3468  088D                     	;# 
  3469  088E                     	;# 
  3470  088F                     	;# 
  3471  088F                     	;# 
  3472  0890                     	;# 
  3473  0891                     	;# 
  3474  0892                     	;# 
  3475  0893                     	;# 
  3476  0893                     	;# 
  3477  0894                     	;# 
  3478  0895                     	;# 
  3479  0896                     	;# 
  3480  0897                     	;# 
  3481  0897                     	;# 
  3482  0898                     	;# 
  3483  0899                     	;# 
  3484  0D8C                     	;# 
  3485  0D8C                     	;# 
  3486  0D8D                     	;# 
  3487  0D8E                     	;# 
  3488  0D8F                     	;# 
  3489  0D8F                     	;# 
  3490  0D90                     	;# 
  3491  0D91                     	;# 
  3492  0D92                     	;# 
  3493  0D92                     	;# 
  3494  0D93                     	;# 
  3495  0D94                     	;# 
  3496  0D95                     	;# 
  3497  0D95                     	;# 
  3498  0D96                     	;# 
  3499  0D97                     	;# 
  3500  0D98                     	;# 
  3501  0D99                     	;# 
  3502  0D9A                     	;# 
  3503  0D9B                     	;# 
  3504  0D9C                     	;# 
  3505  0D9D                     	;# 
  3506  0D9E                     	;# 
  3507  0D9E                     	;# 
  3508  0D9F                     	;# 
  3509  0DA0                     	;# 
  3510  0DA1                     	;# 
  3511  0DA1                     	;# 
  3512  0DA2                     	;# 
  3513  0DA3                     	;# 
  3514  0DA4                     	;# 
  3515  0DA4                     	;# 
  3516  0DA5                     	;# 
  3517  0DA6                     	;# 
  3518  0DA7                     	;# 
  3519  0DA7                     	;# 
  3520  0DA8                     	;# 
  3521  0DA9                     	;# 
  3522  0DAA                     	;# 
  3523  0DAB                     	;# 
  3524  0DAC                     	;# 
  3525  0DAD                     	;# 
  3526  0DAE                     	;# 
  3527  0DAF                     	;# 
  3528  0E0F                     	;# 
  3529  0E10                     	;# 
  3530  0E11                     	;# 
  3531  0E12                     	;# 
  3532  0E13                     	;# 
  3533  0E14                     	;# 
  3534  0E15                     	;# 
  3535  0E16                     	;# 
  3536  0E17                     	;# 
  3537  0E18                     	;# 
  3538  0E19                     	;# 
  3539  0E1A                     	;# 
  3540  0E1B                     	;# 
  3541  0E1C                     	;# 
  3542  0E1D                     	;# 
  3543  0E1E                     	;# 
  3544  0E1F                     	;# 
  3545  0E20                     	;# 
  3546  0E21                     	;# 
  3547  0E22                     	;# 
  3548  0E23                     	;# 
  3549  0E24                     	;# 
  3550  0E25                     	;# 
  3551  0E26                     	;# 
  3552  0E27                     	;# 
  3553  0E28                     	;# 
  3554  0E29                     	;# 
  3555  0E2A                     	;# 
  3556  0E2B                     	;# 
  3557  0E2C                     	;# 
  3558  0E2D                     	;# 
  3559  0E2E                     	;# 
  3560  0E90                     	;# 
  3561  0E91                     	;# 
  3562  0E92                     	;# 
  3563  0E94                     	;# 
  3564  0E95                     	;# 
  3565  0E9C                     	;# 
  3566  0E9D                     	;# 
  3567  0E9E                     	;# 
  3568  0E9F                     	;# 
  3569  0EA0                     	;# 
  3570  0EA1                     	;# 
  3571  0EA2                     	;# 
  3572  0EA3                     	;# 
  3573  0EA4                     	;# 
  3574  0EA5                     	;# 
  3575  0EA6                     	;# 
  3576  0EA7                     	;# 
  3577  0F0F                     	;# 
  3578  0F10                     	;# 
  3579  0F11                     	;# 
  3580  0F12                     	;# 
  3581  0F13                     	;# 
  3582  0F14                     	;# 
  3583  0F15                     	;# 
  3584  0F16                     	;# 
  3585  0F17                     	;# 
  3586  0F18                     	;# 
  3587  0F19                     	;# 
  3588  0F1A                     	;# 
  3589  0F1B                     	;# 
  3590  0F1C                     	;# 
  3591  0F1D                     	;# 
  3592  0F1E                     	;# 
  3593  0F1F                     	;# 
  3594  0F20                     	;# 
  3595  0F21                     	;# 
  3596  0F22                     	;# 
  3597  0F23                     	;# 
  3598  0F24                     	;# 
  3599  0F25                     	;# 
  3600  0F26                     	;# 
  3601  0F27                     	;# 
  3602  0F28                     	;# 
  3603  0F29                     	;# 
  3604  0F2A                     	;# 
  3605  0F2B                     	;# 
  3606  0F2C                     	;# 
  3607  0F2D                     	;# 
  3608  0F2E                     	;# 
  3609  0F2F                     	;# 
  3610  0F30                     	;# 
  3611  0F31                     	;# 
  3612  0F32                     	;# 
  3613  0F33                     	;# 
  3614  0F34                     	;# 
  3615  0F35                     	;# 
  3616  0F36                     	;# 
  3617  0F37                     	;# 
  3618  0FE4                     	;# 
  3619  0FE5                     	;# 
  3620  0FE6                     	;# 
  3621  0FE7                     	;# 
  3622  0FE8                     	;# 
  3623  0FE9                     	;# 
  3624  0FEA                     	;# 
  3625  0FEB                     	;# 
  3626  0FED                     	;# 
  3627  0FEE                     	;# 
  3628  0FEF                     	;# 
  3629                           
  3630 ;; Function _EUSART_is_rx_ready is unused but had its address taken
  3631  0000                     
  3632 ;; Function _EUSART_is_tx_done is unused but had its address taken
  3633  0000                     
  3634 ;; Function _EUSART_DefaultFramingErrorHandler is unused but had its address taken
  3635  0000                     
  3636 ;; Function _EUSART_DefaultOverrunErrorHandler is unused but had its address taken
  3637  0000                     
  3638 ;; Function _EUSART_DefaultErrorHandler is unused but had its address taken
  3639  0000                     
  3640                           	psect	idataCOMMON
  3641  0122                     __pidataCOMMON:
  3642                           
  3643                           ;initializer for _Key
  3644  0122  346E               	retlw	110
  3645                           
  3646                           	psect	idataBANK0
  3647  0123                     __pidataBANK0:
  3648                           
  3649                           ;initializer for _counter
  3650  0123  340D               	retlw	13
  3651  0124  3400               	retlw	0
  3652                           
  3653                           ;initializer for _BackLight_State
  3654  0125  3408               	retlw	8
  3655                           
  3656                           	psect	stringtext1
  3657  08D6                     __pstringtext1:
  3658  08D6                     _uart:
  3659  08D6  3482               	retlw	low _EUSART_Read
  3660  08D7  3401               	retlw	high _EUSART_Read
  3661  08D8  344B               	retlw	low _EUSART_Write
  3662  08D9  3401               	retlw	high _EUSART_Write
  3663  08DA  3491               	retlw	low _EUSART_is_tx_ready
  3664  08DB  3401               	retlw	high _EUSART_is_tx_ready
  3665  08DC  3400               	retlw	0
  3666  08DD  3400               	retlw	0
  3667  08DE  3400               	retlw	0
  3668  08DF  3400               	retlw	0
  3669  08E0  3430               	retlw	low _EUSART_Initialize
  3670  08E1  3402               	retlw	high _EUSART_Initialize
  3671  08E2                     __end_of_uart:
  3672                           
  3673                           	psect	nvBANK0
  3674  002B                     __pnvBANK0:
  3675  002B                     _EUSART_ErrorHandler:
  3676  002B                     	ds	2
  3677  002D                     _EUSART_OverrunErrorHandler:
  3678  002D                     	ds	2
  3679  002F                     _EUSART_FramingErrorHandler:
  3680  002F                     	ds	2
  3681  0031                     _timer0ReloadVal:
  3682  0031                     	ds	1
  3683  0032                     _i2c_add:
  3684  0032                     	ds	1
  3685  000B                     _INTCONbits	set	11
  3686  0015                     _TMR0	set	21
  3687  000D                     _PORTBbits	set	13
  3688  000E                     _PORTCbits	set	14
  3689  0010                     _PIR1bits	set	16
  3690  0095                     _OPTION_REG	set	149
  3691  0098                     _OSCTUNE	set	152
  3692  0099                     _OSCCON	set	153
  3693  0095                     _OPTION_REGbits	set	149
  3694  008E                     _TRISC	set	142
  3695  008D                     _TRISB	set	141
  3696  008C                     _TRISA	set	140
  3697  0473                     _TRISC3	set	1139
  3698  0474                     _TRISC4	set	1140
  3699  010E                     _LATCbits	set	270
  3700  010C                     _LATAbits	set	268
  3701  0116                     _BORCON	set	278
  3702  010E                     _LATC	set	270
  3703  010D                     _LATB	set	269
  3704  010C                     _LATA	set	268
  3705  019A                     _TX1REG	set	410
  3706  0199                     _RC1REG	set	409
  3707  019D                     _RC1STAbits	set	413
  3708  019E                     _TX1STAbits	set	414
  3709  019C                     _SPBRGH	set	412
  3710  019B                     _SPBRGL	set	411
  3711  019E                     _TX1STA	set	414
  3712  019D                     _RC1STA	set	413
  3713  019F                     _BAUD1CON	set	415
  3714  018C                     _ANSELA	set	396
  3715  018D                     _ANSELB	set	397
  3716  018E                     _ANSELC	set	398
  3717  0211                     _SSP1BUF	set	529
  3718  0216                     _SSP1CON2bits	set	534
  3719  0212                     _SSP1ADD	set	530
  3720  0214                     _SSP1STAT	set	532
  3721  0216                     _SSP1CON2	set	534
  3722  0215                     _SSP1CON1	set	533
  3723  020E                     _WPUC	set	526
  3724  020C                     _WPUA	set	524
  3725  020D                     _WPUB	set	525
  3726  028E                     _ODCONC	set	654
  3727  028D                     _ODCONB	set	653
  3728  028C                     _ODCONA	set	652
  3729  030E                     _SLRCONC	set	782
  3730  030D                     _SLRCONB	set	781
  3731  030C                     _SLRCONA	set	780
  3732  038E                     _INLVLC	set	910
  3733  038D                     _INLVLB	set	909
  3734  038C                     _INLVLA	set	908
  3735  0E20                     _SSPCLKPPS	set	3616
  3736  0E21                     _SSPDATPPS	set	3617
  3737  0E24                     _RXPPS	set	3620
  3738  0EA4                     _RC4PPS	set	3748
  3739  0EA3                     _RC3PPS	set	3747
  3740  0EA6                     _RC6PPS	set	3750
  3741                           
  3742                           	psect	stringtext2
  3743  0800                     __pstringtext2:
  3744  0800                     STR_11:
  3745  0800  3445               	retlw	69	;'E'
  3746  0801  346E               	retlw	110	;'n'
  3747  0802  3474               	retlw	116	;'t'
  3748  0803  3465               	retlw	101	;'e'
  3749  0804  3472               	retlw	114	;'r'
  3750  0805  3420               	retlw	32	;' '
  3751  0806  3450               	retlw	80	;'P'
  3752  0807  3461               	retlw	97	;'a'
  3753  0808  3473               	retlw	115	;'s'
  3754  0809  3473               	retlw	115	;'s'
  3755  080A  3477               	retlw	119	;'w'
  3756  080B  346F               	retlw	111	;'o'
  3757  080C  3472               	retlw	114	;'r'
  3758  080D  3464               	retlw	100	;'d'
  3759  080E  343A               	retlw	58	;':'
  3760  080F  3420               	retlw	32	;' '
  3761  0810  3400               	retlw	0
  3762                           
  3763                           	psect	stringtext3
  3764  0811                     __pstringtext3:
  3765  0811                     STR_1:
  3766  0811  344D               	retlw	77	;'M'
  3767  0812  3461               	retlw	97	;'a'
  3768  0813  3473               	retlw	115	;'s'
  3769  0814  3474               	retlw	116	;'t'
  3770  0815  3465               	retlw	101	;'e'
  3771  0816  3472               	retlw	114	;'r'
  3772  0817  3420               	retlw	32	;' '
  3773  0818  3443               	retlw	67	;'C'
  3774  0819  3461               	retlw	97	;'a'
  3775  081A  346D               	retlw	109	;'m'
  3776  081B  3470               	retlw	112	;'p'
  3777  081C  3420               	retlw	32	;' '
  3778  081D  3432               	retlw	50	;'2'
  3779  081E  3430               	retlw	48	;'0'
  3780  081F  3432               	retlw	50	;'2'
  3781  0820  3431               	retlw	49	;'1'
  3782  0821  3400               	retlw	0
  3783                           
  3784                           	psect	stringtext4
  3785  0822                     __pstringtext4:
  3786  0822                     STR_4:
  3787  0822  3445               	retlw	69	;'E'
  3788  0823  346D               	retlw	109	;'m'
  3789  0824  3462               	retlw	98	;'b'
  3790  0825  3465               	retlw	101	;'e'
  3791  0826  3464               	retlw	100	;'d'
  3792  0827  3464               	retlw	100	;'d'
  3793  0828  3465               	retlw	101	;'e'
  3794  0829  3464               	retlw	100	;'d'
  3795  082A  3420               	retlw	32	;' '
  3796  082B  3453               	retlw	83	;'S'
  3797  082C  3479               	retlw	121	;'y'
  3798  082D  3473               	retlw	115	;'s'
  3799  082E  3474               	retlw	116	;'t'
  3800  082F  3465               	retlw	101	;'e'
  3801  0830  346D               	retlw	109	;'m'
  3802  0831  3473               	retlw	115	;'s'
  3803  0832  3400               	retlw	0
  3804                           
  3805                           	psect	stringtext5
  3806  0833                     __pstringtext5:
  3807  0833                     STR_6:
  3808  0833  3453               	retlw	83	;'S'
  3809  0834  346F               	retlw	111	;'o'
  3810  0835  346C               	retlw	108	;'l'
  3811  0836  3475               	retlw	117	;'u'
  3812  0837  3474               	retlw	116	;'t'
  3813  0838  3469               	retlw	105	;'i'
  3814  0839  346F               	retlw	111	;'o'
  3815  083A  346E               	retlw	110	;'n'
  3816  083B  3420               	retlw	32	;' '
  3817  083C  3446               	retlw	70	;'F'
  3818  083D  3461               	retlw	97	;'a'
  3819  083E  3463               	retlw	99	;'c'
  3820  083F  3474               	retlw	116	;'t'
  3821  0840  346F               	retlw	111	;'o'
  3822  0841  3472               	retlw	114	;'r'
  3823  0842  3479               	retlw	121	;'y'
  3824  0843  3400               	retlw	0
  3825                           
  3826                           	psect	stringtext6
  3827  0844                     __pstringtext6:
  3828  0844                     STR_9:
  3829  0844  3449               	retlw	73	;'I'
  3830  0845  346E               	retlw	110	;'n'
  3831  0846  3469               	retlw	105	;'i'
  3832  0847  3474               	retlw	116	;'t'
  3833  0848  3469               	retlw	105	;'i'
  3834  0849  3461               	retlw	97	;'a'
  3835  084A  346C               	retlw	108	;'l'
  3836  084B  3469               	retlw	105	;'i'
  3837  084C  347A               	retlw	122	;'z'
  3838  084D  3465               	retlw	101	;'e'
  3839  084E  3420               	retlw	32	;' '
  3840  084F  3446               	retlw	70	;'F'
  3841  0850  3450               	retlw	80	;'P'
  3842  0851  3447               	retlw	71	;'G'
  3843  0852  3441               	retlw	65	;'A'
  3844  0853  3400               	retlw	0
  3845                           
  3846                           	psect	stringtext7
  3847  0854                     __pstringtext7:
  3848  0854                     STR_12:
  3849  0854  3446               	retlw	70	;'F'
  3850  0855  3450               	retlw	80	;'P'
  3851  0856  3447               	retlw	71	;'G'
  3852  0857  3441               	retlw	65	;'A'
  3853  0858  3420               	retlw	32	;' '
  3854  0859  3450               	retlw	80	;'P'
  3855  085A  3472               	retlw	114	;'r'
  3856  085B  346F               	retlw	111	;'o'
  3857  085C  3463               	retlw	99	;'c'
  3858  085D  3465               	retlw	101	;'e'
  3859  085E  3473               	retlw	115	;'s'
  3860  085F  3473               	retlw	115	;'s'
  3861  0860  3469               	retlw	105	;'i'
  3862  0861  346E               	retlw	110	;'n'
  3863  0862  3467               	retlw	103	;'g'
  3864  0863  3400               	retlw	0
  3865                           
  3866                           	psect	stringtext8
  3867  0864                     __pstringtext8:
  3868  0864                     STR_14:
  3869  0864  3443               	retlw	67	;'C'
  3870  0865  346F               	retlw	111	;'o'
  3871  0866  3464               	retlw	100	;'d'
  3872  0867  3465               	retlw	101	;'e'
  3873  0868  3420               	retlw	32	;' '
  3874  0869  3469               	retlw	105	;'i'
  3875  086A  3473               	retlw	115	;'s'
  3876  086B  3420               	retlw	32	;' '
  3877  086C  3463               	retlw	99	;'c'
  3878  086D  346F               	retlw	111	;'o'
  3879  086E  3472               	retlw	114	;'r'
  3880  086F  3472               	retlw	114	;'r'
  3881  0870  3465               	retlw	101	;'e'
  3882  0871  3463               	retlw	99	;'c'
  3883  0872  3474               	retlw	116	;'t'
  3884  0873  3400               	retlw	0
  3885                           
  3886                           	psect	stringtext9
  3887  0874                     __pstringtext9:
  3888  0874                     STR_2:
  3889  0874  3420               	retlw	32	;' '
  3890  0875  3420               	retlw	32	;' '
  3891  0876  3445               	retlw	69	;'E'
  3892  0877  3446               	retlw	70	;'F'
  3893  0878  3452               	retlw	82	;'R'
  3894  0879  3445               	retlw	69	;'E'
  3895  087A  3449               	retlw	73	;'I'
  3896  087B  3420               	retlw	32	;' '
  3897  087C  3450               	retlw	80	;'P'
  3898  087D  3461               	retlw	97	;'a'
  3899  087E  3472               	retlw	114	;'r'
  3900  087F  3469               	retlw	105	;'i'
  3901  0880  3473               	retlw	115	;'s'
  3902  0881  3420               	retlw	32	;' '
  3903  0882  3400               	retlw	0
  3904                           
  3905                           	psect	stringtext10
  3906  0883                     __pstringtext10:
  3907  0883                     STR_5:
  3908  0883  3420               	retlw	32	;' '
  3909  0884  3420               	retlw	32	;' '
  3910  0885  342A               	retlw	42	;'*'
  3911  0886  342A               	retlw	42	;'*'
  3912  0887  3420               	retlw	32	;' '
  3913  0888  3450               	retlw	80	;'P'
  3914  0889  3472               	retlw	114	;'r'
  3915  088A  346F               	retlw	111	;'o'
  3916  088B  346A               	retlw	106	;'j'
  3917  088C  3465               	retlw	101	;'e'
  3918  088D  3474               	retlw	116	;'t'
  3919  088E  3420               	retlw	32	;' '
  3920  088F  342A               	retlw	42	;'*'
  3921  0890  342A               	retlw	42	;'*'
  3922  0891  3400               	retlw	0
  3923                           
  3924                           	psect	stringtext11
  3925  0892                     __pstringtext11:
  3926  0892                     STR_10:
  3927  0892  3450               	retlw	80	;'P'
  3928  0893  346C               	retlw	108	;'l'
  3929  0894  3465               	retlw	101	;'e'
  3930  0895  3461               	retlw	97	;'a'
  3931  0896  3473               	retlw	115	;'s'
  3932  0897  3465               	retlw	101	;'e'
  3933  0898  3420               	retlw	32	;' '
  3934  0899  3457               	retlw	87	;'W'
  3935  089A  3461               	retlw	97	;'a'
  3936  089B  3469               	retlw	105	;'i'
  3937  089C  3474               	retlw	116	;'t'
  3938  089D  3420               	retlw	32	;' '
  3939  089E  342E               	retlw	46	;'.'
  3940  089F  342E               	retlw	46	;'.'
  3941  08A0  3400               	retlw	0
  3942                           
  3943                           	psect	stringtext12
  3944  08A1                     __pstringtext12:
  3945  08A1                     STR_16:
  3946  08A1  3443               	retlw	67	;'C'
  3947  08A2  346F               	retlw	111	;'o'
  3948  08A3  3464               	retlw	100	;'d'
  3949  08A4  3465               	retlw	101	;'e'
  3950  08A5  3420               	retlw	32	;' '
  3951  08A6  3469               	retlw	105	;'i'
  3952  08A7  3473               	retlw	115	;'s'
  3953  08A8  3420               	retlw	32	;' '
  3954  08A9  3477               	retlw	119	;'w'
  3955  08AA  3472               	retlw	114	;'r'
  3956  08AB  346F               	retlw	111	;'o'
  3957  08AC  346E               	retlw	110	;'n'
  3958  08AD  3467               	retlw	103	;'g'
  3959  08AE  3400               	retlw	0
  3960                           
  3961                           	psect	stringtext13
  3962  08AF                     __pstringtext13:
  3963  08AF                     STR_18:
  3964  08AF  3474               	retlw	116	;'t'
  3965  08B0  3472               	retlw	114	;'r'
  3966  08B1  3479               	retlw	121	;'y'
  3967  08B2  3420               	retlw	32	;' '
  3968  08B3  3461               	retlw	97	;'a'
  3969  08B4  3467               	retlw	103	;'g'
  3970  08B5  3461               	retlw	97	;'a'
  3971  08B6  3469               	retlw	105	;'i'
  3972  08B7  346E               	retlw	110	;'n'
  3973  08B8  3420               	retlw	32	;' '
  3974  08B9  342E               	retlw	46	;'.'
  3975  08BA  342E               	retlw	46	;'.'
  3976  08BB  3400               	retlw	0
  3977                           
  3978                           	psect	stringtext14
  3979  08BC                     __pstringtext14:
  3980  08BC                     STR_15:
  3981  08BC  3454               	retlw	84	;'T'
  3982  08BD  3468               	retlw	104	;'h'
  3983  08BE  3461               	retlw	97	;'a'
  3984  08BF  346E               	retlw	110	;'n'
  3985  08C0  346B               	retlw	107	;'k'
  3986  08C1  3420               	retlw	32	;' '
  3987  08C2  3479               	retlw	121	;'y'
  3988  08C3  346F               	retlw	111	;'o'
  3989  08C4  3475               	retlw	117	;'u'
  3990  08C5  3420               	retlw	32	;' '
  3991  08C6  342E               	retlw	46	;'.'
  3992  08C7  342E               	retlw	46	;'.'
  3993  08C8  3400               	retlw	0
  3994                           
  3995                           	psect	stringtext15
  3996  08C9                     __pstringtext15:
  3997  08C9                     STR_7:
  3998  08C9  3450               	retlw	80	;'P'
  3999  08CA  3472               	retlw	114	;'r'
  4000  08CB  3465               	retlw	101	;'e'
  4001  08CC  3473               	retlw	115	;'s'
  4002  08CD  3473               	retlw	115	;'s'
  4003  08CE  3420               	retlw	32	;' '
  4004  08CF  3427               	retlw	39	;'''
  4005  08D0  342A               	retlw	42	;'*'
  4006  08D1  3427               	retlw	39	;'''
  4007  08D2  3420               	retlw	32	;' '
  4008  08D3  3474               	retlw	116	;'t'
  4009  08D4  346F               	retlw	111	;'o'
  4010  08D5  3400               	retlw	0
  4011                           
  4012                           	psect	stringtext16
  4013  08E2                     __pstringtext16:
  4014  08E2                     STR_8:
  4015  08E2  3463               	retlw	99	;'c'
  4016  08E3  346F               	retlw	111	;'o'
  4017  08E4  346E               	retlw	110	;'n'
  4018  08E5  3474               	retlw	116	;'t'
  4019  08E6  3469               	retlw	105	;'i'
  4020  08E7  346E               	retlw	110	;'n'
  4021  08E8  3475               	retlw	117	;'u'
  4022  08E9  3465               	retlw	101	;'e'
  4023  08EA  3420               	retlw	32	;' '
  4024  08EB  342E               	retlw	46	;'.'
  4025  08EC  342E               	retlw	46	;'.'
  4026  08ED  3400               	retlw	0
  4027                           
  4028                           	psect	stringtext17
  4029  0000                     __pstringtext17:
  4030  0874                     
  4031                           	psect	cinit
  4032  07E2                     start_initialization:	
  4033                           ; #config settings
  4034                           
  4035  07E2                     __initialization:
  4036                           
  4037                           ; Initialize objects allocated to COMMON
  4038  07E2  3181  2122  3187   	fcall	__pidataCOMMON	;fetch initializer
  4039  07E5  00FD               	movwf	__pdataCOMMON& (0+127)
  4040                           
  4041                           ; Initialize objects allocated to BANK0
  4042  07E6  3181  2123  3187   	fcall	__pidataBANK0	;fetch initializer
  4043  07E9  00B3               	movwf	__pdataBANK0& (0+127)
  4044  07EA  3181  2124  3187   	fcall	__pidataBANK0+1	;fetch initializer
  4045  07ED  00B4               	movwf	(__pdataBANK0+1)& (0+127)
  4046  07EE  3181  2125  3187   	fcall	__pidataBANK0+2	;fetch initializer
  4047  07F1  00B5               	movwf	(__pdataBANK0+2)& (0+127)
  4048                           
  4049                           ; Clear objects allocated to BANK0
  4050  07F2  01A0               	clrf	__pbssBANK0& (0+127)
  4051  07F3  01A1               	clrf	(__pbssBANK0+1)& (0+127)
  4052  07F4  01A2               	clrf	(__pbssBANK0+2)& (0+127)
  4053  07F5  01A3               	clrf	(__pbssBANK0+3)& (0+127)
  4054  07F6  01A4               	clrf	(__pbssBANK0+4)& (0+127)
  4055  07F7  01A5               	clrf	(__pbssBANK0+5)& (0+127)
  4056  07F8  01A6               	clrf	(__pbssBANK0+6)& (0+127)
  4057  07F9  01A7               	clrf	(__pbssBANK0+7)& (0+127)
  4058  07FA  01A8               	clrf	(__pbssBANK0+8)& (0+127)
  4059  07FB  01A9               	clrf	(__pbssBANK0+9)& (0+127)
  4060  07FC  01AA               	clrf	(__pbssBANK0+10)& (0+127)
  4061  07FD                     end_of_initialization:	
  4062                           ;End of C runtime variable initialization code
  4063                           
  4064  07FD                     __end_of__initialization:
  4065  07FD  0020               	movlb	0
  4066  07FE  3183  2B56         	ljmp	_main	;jump to C main() function
  4067                           
  4068                           	psect	dataCOMMON
  4069  007D                     __pdataCOMMON:
  4070  007D                     _Key:
  4071  007D                     	ds	1
  4072                           
  4073                           	psect	bssBANK0
  4074  0020                     __pbssBANK0:
  4075  0020                     _ID:
  4076  0020                     	ds	2
  4077  0022                     _Code:
  4078  0022                     	ds	2
  4079  0024                     _Val_mod:
  4080  0024                     	ds	2
  4081  0026                     _code:
  4082  0026                     	ds	1
  4083  0027                     _eusartRxLastError:
  4084  0027                     	ds	1
  4085  0028                     _RS:
  4086  0028                     	ds	1
  4087  0029                     _Val:
  4088  0029                     	ds	2
  4089                           
  4090                           	psect	dataBANK0
  4091  0033                     __pdataBANK0:
  4092  0033                     _counter:
  4093  0033                     	ds	2
  4094  0035                     _BackLight_State:
  4095  0035                     	ds	1
  4096                           
  4097                           	psect	cstackCOMMON
  4098  0070                     __pcstackCOMMON:
  4099  0070                     ?_I2C_Master_Init:
  4100  0070                     ??_I2C_Master_Init:	
  4101                           ; 1 bytes @ 0x0
  4102                           
  4103  0070                     ?_OSCILLATOR_Initialize:	
  4104                           ; 1 bytes @ 0x0
  4105                           
  4106  0070                     ??_OSCILLATOR_Initialize:	
  4107                           ; 1 bytes @ 0x0
  4108                           
  4109  0070                     ?_TMR0_Initialize:	
  4110                           ; 1 bytes @ 0x0
  4111                           
  4112  0070                     ??_TMR0_Initialize:	
  4113                           ; 1 bytes @ 0x0
  4114                           
  4115  0070                     ?_EUSART_Initialize:	
  4116                           ; 1 bytes @ 0x0
  4117                           
  4118  0070                     ?_IO_Expander_Write:	
  4119                           ; 1 bytes @ 0x0
  4120                           
  4121  0070                     ?_LCD_CMD:	
  4122                           ; 1 bytes @ 0x0
  4123                           
  4124  0070                     ?_keypad_scanner:	
  4125                           ; 1 bytes @ 0x0
  4126                           
  4127  0070                     ?_EUSART_SetFramingErrorHandler:	
  4128                           ; 1 bytes @ 0x0
  4129                           
  4130  0070                     ?_EUSART_SetOverrunErrorHandler:	
  4131                           ; 1 bytes @ 0x0
  4132                           
  4133  0070                     ?_EUSART_SetErrorHandler:	
  4134                           ; 1 bytes @ 0x0
  4135                           
  4136  0070                     ?_PIN_MANAGER_Initialize:	
  4137                           ; 1 bytes @ 0x0
  4138                           
  4139  0070                     ??_PIN_MANAGER_Initialize:	
  4140                           ; 1 bytes @ 0x0
  4141                           
  4142  0070                     ?_SYSTEM_Initialize:	
  4143                           ; 1 bytes @ 0x0
  4144                           
  4145  0070                     ?_I2C_Master_Wait:	
  4146                           ; 1 bytes @ 0x0
  4147                           
  4148  0070                     ??_I2C_Master_Wait:	
  4149                           ; 1 bytes @ 0x0
  4150                           
  4151  0070                     ?_I2C_Master_Start:	
  4152                           ; 1 bytes @ 0x0
  4153                           
  4154  0070                     ??_I2C_Master_Start:	
  4155                           ; 1 bytes @ 0x0
  4156                           
  4157  0070                     ?_I2C_Master_Stop:	
  4158                           ; 1 bytes @ 0x0
  4159                           
  4160  0070                     ??_I2C_Master_Stop:	
  4161                           ; 1 bytes @ 0x0
  4162                           
  4163  0070                     ?_I2C_Master_Write:	
  4164                           ; 1 bytes @ 0x0
  4165                           
  4166  0070                     ??_I2C_Master_Write:	
  4167                           ; 1 bytes @ 0x0
  4168                           
  4169  0070                     ?_LCD_Init:	
  4170                           ; 1 bytes @ 0x0
  4171                           
  4172  0070                     ?_LCD_Write_4Bit:	
  4173                           ; 1 bytes @ 0x0
  4174                           
  4175  0070                     ?_LCD_Write_Char:	
  4176                           ; 1 bytes @ 0x0
  4177                           
  4178  0070                     ?_LCD_Clear:	
  4179                           ; 1 bytes @ 0x0
  4180                           
  4181  0070                     ?_EUSART_is_tx_ready:	
  4182                           ; 1 bytes @ 0x0
  4183                           
  4184  0070                     ??_EUSART_is_tx_ready:	
  4185                           ; 1 bytes @ 0x0
  4186                           
  4187  0070                     ?_EUSART_Read:	
  4188                           ; 1 bytes @ 0x0
  4189                           
  4190  0070                     ??_EUSART_Read:	
  4191                           ; 1 bytes @ 0x0
  4192                           
  4193  0070                     ?_EUSART_Write:	
  4194                           ; 1 bytes @ 0x0
  4195                           
  4196  0070                     ?_main:	
  4197                           ; 1 bytes @ 0x0
  4198                           
  4199  0070                     I2C_Master_Write@data:	
  4200                           ; 1 bytes @ 0x0
  4201                           
  4202  0070                     keypad_scanner@val_o:	
  4203                           ; 1 bytes @ 0x0
  4204                           
  4205  0070                     _EUSART_is_tx_ready$474:	
  4206                           ; 1 bytes @ 0x0
  4207                           
  4208  0070                     EUSART_Write@txData:	
  4209                           ; 1 bytes @ 0x0
  4210                           
  4211  0070                     EUSART_SetFramingErrorHandler@interruptHandler:	
  4212                           ; 1 bytes @ 0x0
  4213                           
  4214  0070                     EUSART_SetOverrunErrorHandler@interruptHandler:	
  4215                           ; 2 bytes @ 0x0
  4216                           
  4217  0070                     EUSART_SetErrorHandler@interruptHandler:	
  4218                           ; 2 bytes @ 0x0
  4219                           
  4220                           
  4221                           ; 2 bytes @ 0x0
  4222  0070                     	ds	1
  4223  0071                     ??_IO_Expander_Write:
  4224  0071                     ??_keypad_scanner:	
  4225                           ; 1 bytes @ 0x1
  4226                           
  4227  0071                     ??_EUSART_Write:	
  4228                           ; 1 bytes @ 0x1
  4229                           
  4230  0071                     IO_Expander_Write@Data:	
  4231                           ; 1 bytes @ 0x1
  4232                           
  4233                           
  4234                           ; 1 bytes @ 0x1
  4235  0071                     	ds	1
  4236  0072                     ??_EUSART_Initialize:
  4237  0072                     ??_EUSART_SetFramingErrorHandler:	
  4238                           ; 1 bytes @ 0x2
  4239                           
  4240  0072                     ??_EUSART_SetOverrunErrorHandler:	
  4241                           ; 1 bytes @ 0x2
  4242                           
  4243  0072                     ??_EUSART_SetErrorHandler:	
  4244                           ; 1 bytes @ 0x2
  4245                           
  4246  0072                     ??_SYSTEM_Initialize:	
  4247                           ; 1 bytes @ 0x2
  4248                           
  4249  0072                     ??_LCD_Write_4Bit:	
  4250                           ; 1 bytes @ 0x2
  4251                           
  4252  0072                     keypad_scanner@key_o:	
  4253                           ; 1 bytes @ 0x2
  4254                           
  4255                           
  4256                           ; 1 bytes @ 0x2
  4257  0072                     	ds	1
  4258  0073                     ?_switch_press_scan:
  4259  0073                     LCD_Write_4Bit@Nibble:	
  4260                           ; 1 bytes @ 0x3
  4261                           
  4262  0073                     switch_press_scan@val_o:	
  4263                           ; 1 bytes @ 0x3
  4264                           
  4265                           
  4266                           ; 1 bytes @ 0x3
  4267  0073                     	ds	1
  4268  0074                     ??_LCD_CMD:
  4269  0074                     ??_LCD_Write_Char:	
  4270                           ; 1 bytes @ 0x4
  4271                           
  4272  0074                     ??_switch_press_scan:	
  4273                           ; 1 bytes @ 0x4
  4274                           
  4275                           
  4276                           ; 1 bytes @ 0x4
  4277  0074                     	ds	1
  4278  0075                     LCD_CMD@CMD:
  4279  0075                     LCD_Write_Char@Data:	
  4280                           ; 1 bytes @ 0x5
  4281                           
  4282  0075                     switch_press_scan@key_o:	
  4283                           ; 1 bytes @ 0x5
  4284                           
  4285                           
  4286                           ; 1 bytes @ 0x5
  4287  0075                     	ds	1
  4288  0076                     ??_LCD_Init:
  4289  0076                     ?_LCD_Write_String:	
  4290                           ; 1 bytes @ 0x6
  4291                           
  4292  0076                     ?_LCD_Set_Cursor:	
  4293                           ; 1 bytes @ 0x6
  4294                           
  4295  0076                     ??_LCD_Clear:	
  4296                           ; 1 bytes @ 0x6
  4297                           
  4298  0076                     LCD_Set_Cursor@COL:	
  4299                           ; 1 bytes @ 0x6
  4300                           
  4301  0076                     LCD_Write_String@Str:	
  4302                           ; 1 bytes @ 0x6
  4303                           
  4304  0076                     switch_press_scan@val:	
  4305                           ; 2 bytes @ 0x6
  4306                           
  4307                           
  4308                           ; 2 bytes @ 0x6
  4309  0076                     	ds	1
  4310  0077                     ??_LCD_Set_Cursor:
  4311  0077                     LCD_Init@I2C_Add:	
  4312                           ; 1 bytes @ 0x7
  4313                           
  4314                           
  4315                           ; 1 bytes @ 0x7
  4316  0077                     	ds	1
  4317  0078                     ??_LCD_Write_String:
  4318  0078                     switch_press_scan@key:	
  4319                           ; 1 bytes @ 0x8
  4320                           
  4321                           
  4322                           ; 1 bytes @ 0x8
  4323  0078                     	ds	1
  4324  0079                     LCD_Set_Cursor@ROW:
  4325  0079                     LCD_Write_String@i:	
  4326                           ; 1 bytes @ 0x9
  4327                           
  4328                           
  4329                           ; 2 bytes @ 0x9
  4330  0079                     	ds	2
  4331  007B                     ??_main:
  4332                           
  4333                           ; 1 bytes @ 0xB
  4334  007B                     	ds	2
  4335                           
  4336                           	psect	maintext
  4337  0356                     __pmaintext:	
  4338 ;;
  4339 ;;Main: autosize = 0, tempsize = 2, incstack = 0, save=0
  4340 ;;
  4341 ;; *************** function _main *****************
  4342 ;; Defined at:
  4343 ;;		line 50 in file "main.c"
  4344 ;; Parameters:    Size  Location     Type
  4345 ;;		None
  4346 ;; Auto vars:     Size  Location     Type
  4347 ;;		None
  4348 ;; Return value:  Size  Location     Type
  4349 ;;                  1    wreg      void 
  4350 ;; Registers used:
  4351 ;;		wreg, fsr0l, fsr0h, fsr1l, fsr1h, status,2, status,0, pclath, cstack
  4352 ;; Tracked objects:
  4353 ;;		On entry : B1F/0
  4354 ;;		On exit  : 0/0
  4355 ;;		Unchanged: 0/0
  4356 ;; Data sizes:     COMMON   BANK0   BANK1   BANK2   BANK3   BANK4   BANK5   BANK6   BANK7   BANK8   BANK9  BANK10  BANK1
      +1  BANK12
  4357 ;;      Params:         0       0       0       0       0       0       0       0       0       0       0       0       
      +0       0
  4358 ;;      Locals:         0       0       0       0       0       0       0       0       0       0       0       0       
      +0       0
  4359 ;;      Temps:          2       0       0       0       0       0       0       0       0       0       0       0       
      +0       0
  4360 ;;      Totals:         2       0       0       0       0       0       0       0       0       0       0       0       
      +0       0
  4361 ;;Total ram usage:        2 bytes
  4362 ;; Hardware stack levels required when called: 6
  4363 ;; This function calls:
  4364 ;;		_EUSART_Read
  4365 ;;		_EUSART_Write
  4366 ;;		_EUSART_is_tx_ready
  4367 ;;		_I2C_Master_Init
  4368 ;;		_LCD_Clear
  4369 ;;		_LCD_Init
  4370 ;;		_LCD_Set_Cursor
  4371 ;;		_LCD_Write_Char
  4372 ;;		_LCD_Write_String
  4373 ;;		_SYSTEM_Initialize
  4374 ;;		_keypad_scanner
  4375 ;;		_switch_press_scan
  4376 ;; This function is called by:
  4377 ;;		Startup code after reset
  4378 ;; This function uses a non-reentrant model
  4379 ;;
  4380                           
  4381                           
  4382                           ;psect for function _main
  4383  0356                     _main:
  4384  0356                     l2142:	
  4385                           ;incstack = 0
  4386                           ; Regs used in _main: [wreg-fsr1h+status,2+status,0+pclath+cstack]
  4387                           
  4388                           
  4389                           ;main.c: 51:   SYSTEM_Initialize();
  4390  0356  3181  21B0  3183   	fcall	_SYSTEM_Initialize
  4391                           
  4392                           ;main.c: 52:   I2C_Master_Init();
  4393  0359  3181  215D  3183   	fcall	_I2C_Master_Init
  4394                           
  4395                           ;main.c: 53:   LCD_Init(0x4E);
  4396  035C  304E               	movlw	78
  4397  035D  3182  22E3  3183   	fcall	_LCD_Init
  4398                           
  4399                           ;main.c: 55:     LCD_Clear();
  4400  0360  3181  2154  3183   	fcall	_LCD_Clear
  4401  0363                     l2144:
  4402                           
  4403                           ;main.c: 56:     LCD_Set_Cursor(1, 1);
  4404  0363  01F6               	clrf	LCD_Set_Cursor@COL
  4405  0364  0AF6               	incf	LCD_Set_Cursor@COL,f
  4406  0365  3001               	movlw	1
  4407  0366  3182  2279  3183   	fcall	_LCD_Set_Cursor
  4408  0369                     l2146:
  4409                           
  4410                           ;main.c: 57:     LCD_Write_String("Master Camp 2021");
  4411  0369  3011               	movlw	low (STR_1| (0+32768))
  4412  036A  00F6               	movwf	LCD_Write_String@Str
  4413  036B  3088               	movlw	high (STR_1| (0+32768))
  4414  036C  00F7               	movwf	LCD_Write_String@Str+1
  4415  036D  3182  2213  3183   	fcall	_LCD_Write_String
  4416  0370                     l2148:
  4417                           
  4418                           ;main.c: 58:     LCD_Set_Cursor(2, 1);
  4419  0370  01F6               	clrf	LCD_Set_Cursor@COL
  4420  0371  0AF6               	incf	LCD_Set_Cursor@COL,f
  4421  0372  3002               	movlw	2
  4422  0373  3182  2279  3183   	fcall	_LCD_Set_Cursor
  4423  0376                     l2150:
  4424                           
  4425                           ;main.c: 59:     LCD_Write_String("  EFREI Paris ");
  4426  0376  3074               	movlw	low (STR_2| (0+32768))
  4427  0377  00F6               	movwf	LCD_Write_String@Str
  4428  0378  3088               	movlw	high (STR_2| (0+32768))
  4429  0379  00F7               	movwf	LCD_Write_String@Str+1
  4430  037A  3182  2213  3183   	fcall	_LCD_Write_String
  4431  037D                     l2152:
  4432                           
  4433                           ;main.c: 60:     _delay((unsigned long)((2500)*(4000000/4000.0)));
  4434  037D  300D               	movlw	13
  4435  037E  00FC               	movwf	??_main+1
  4436  037F  30AF               	movlw	175
  4437  0380  00FB               	movwf	??_main
  4438  0381  30B6               	movlw	182
  4439  0382                     u1397:
  4440  0382  0B89               	decfsz	9,f
  4441  0383  2B82               	goto	u1397
  4442  0384  0BFB               	decfsz	??_main,f
  4443  0385  2B82               	goto	u1397
  4444  0386  0BFC               	decfsz	??_main+1,f
  4445  0387  2B82               	goto	u1397
  4446  0388  3200               	nop2
  4447  0389                     l2154:
  4448                           
  4449                           ;main.c: 62:     LCD_Clear();
  4450  0389  3181  2154  3183   	fcall	_LCD_Clear
  4451  038C                     l2156:
  4452                           
  4453                           ;main.c: 63:     LCD_Set_Cursor(1, 1);
  4454  038C  01F6               	clrf	LCD_Set_Cursor@COL
  4455  038D  0AF6               	incf	LCD_Set_Cursor@COL,f
  4456  038E  3001               	movlw	1
  4457  038F  3182  2279  3183   	fcall	_LCD_Set_Cursor
  4458  0392                     l2158:
  4459                           
  4460                           ;main.c: 64:     LCD_Write_String("  EFREI Paris ");
  4461  0392  3074               	movlw	low (STR_2| (0+32768))
  4462  0393  00F6               	movwf	LCD_Write_String@Str
  4463  0394  3088               	movlw	high (STR_2| (0+32768))
  4464  0395  00F7               	movwf	LCD_Write_String@Str+1
  4465  0396  3182  2213  3183   	fcall	_LCD_Write_String
  4466  0399                     l2160:
  4467                           
  4468                           ;main.c: 65:     LCD_Set_Cursor(2, 1);
  4469  0399  01F6               	clrf	LCD_Set_Cursor@COL
  4470  039A  0AF6               	incf	LCD_Set_Cursor@COL,f
  4471  039B  3002               	movlw	2
  4472  039C  3182  2279  3183   	fcall	_LCD_Set_Cursor
  4473  039F                     l2162:
  4474                           
  4475                           ;main.c: 66:     LCD_Write_String("Embedded Systems");
  4476  039F  3022               	movlw	low (STR_4| (0+32768))
  4477  03A0  00F6               	movwf	LCD_Write_String@Str
  4478  03A1  3088               	movlw	high (STR_4| (0+32768))
  4479  03A2  00F7               	movwf	LCD_Write_String@Str+1
  4480  03A3  3182  2213  3183   	fcall	_LCD_Write_String
  4481                           
  4482                           ;main.c: 67:     _delay((unsigned long)((2500)*(4000000/4000.0)));
  4483  03A6  300D               	movlw	13
  4484  03A7  00FC               	movwf	??_main+1
  4485  03A8  30AF               	movlw	175
  4486  03A9  00FB               	movwf	??_main
  4487  03AA  30B6               	movlw	182
  4488  03AB                     u1407:
  4489  03AB  0B89               	decfsz	9,f
  4490  03AC  2BAB               	goto	u1407
  4491  03AD  0BFB               	decfsz	??_main,f
  4492  03AE  2BAB               	goto	u1407
  4493  03AF  0BFC               	decfsz	??_main+1,f
  4494  03B0  2BAB               	goto	u1407
  4495  03B1  3200               	nop2
  4496  03B2                     l2164:
  4497                           
  4498                           ;main.c: 69:     LCD_Clear();
  4499  03B2  3181  2154  3183   	fcall	_LCD_Clear
  4500  03B5                     l2166:
  4501                           
  4502                           ;main.c: 70:     LCD_Set_Cursor(1, 1);
  4503  03B5  01F6               	clrf	LCD_Set_Cursor@COL
  4504  03B6  0AF6               	incf	LCD_Set_Cursor@COL,f
  4505  03B7  3001               	movlw	1
  4506  03B8  3182  2279  3183   	fcall	_LCD_Set_Cursor
  4507  03BB                     l2168:
  4508                           
  4509                           ;main.c: 71:     LCD_Write_String("  ** Projet **");
  4510  03BB  3083               	movlw	low (STR_5| (0+32768))
  4511  03BC  00F6               	movwf	LCD_Write_String@Str
  4512  03BD  3088               	movlw	high (STR_5| (0+32768))
  4513  03BE  00F7               	movwf	LCD_Write_String@Str+1
  4514  03BF  3182  2213  3183   	fcall	_LCD_Write_String
  4515  03C2                     l2170:
  4516                           
  4517                           ;main.c: 72:     LCD_Set_Cursor(2, 1);
  4518  03C2  01F6               	clrf	LCD_Set_Cursor@COL
  4519  03C3  0AF6               	incf	LCD_Set_Cursor@COL,f
  4520  03C4  3002               	movlw	2
  4521  03C5  3182  2279  3183   	fcall	_LCD_Set_Cursor
  4522  03C8                     l2172:
  4523                           
  4524                           ;main.c: 73:     LCD_Write_String("Solution Factory");
  4525  03C8  3033               	movlw	low (STR_6| (0+32768))
  4526  03C9  00F6               	movwf	LCD_Write_String@Str
  4527  03CA  3088               	movlw	high (STR_6| (0+32768))
  4528  03CB  00F7               	movwf	LCD_Write_String@Str+1
  4529  03CC  3182  2213  3183   	fcall	_LCD_Write_String
  4530  03CF                     l2174:
  4531                           
  4532                           ;main.c: 74:     _delay((unsigned long)((2500)*(4000000/4000.0)));
  4533  03CF  300D               	movlw	13
  4534  03D0  00FC               	movwf	??_main+1
  4535  03D1  30AF               	movlw	175
  4536  03D2  00FB               	movwf	??_main
  4537  03D3  30B6               	movlw	182
  4538  03D4                     u1417:
  4539  03D4  0B89               	decfsz	9,f
  4540  03D5  2BD4               	goto	u1417
  4541  03D6  0BFB               	decfsz	??_main,f
  4542  03D7  2BD4               	goto	u1417
  4543  03D8  0BFC               	decfsz	??_main+1,f
  4544  03D9  2BD4               	goto	u1417
  4545  03DA  3200               	nop2
  4546                           
  4547                           ;main.c: 76:     LCD_Clear();
  4548  03DB  3181  2154  3183   	fcall	_LCD_Clear
  4549  03DE                     l2176:
  4550                           
  4551                           ;main.c: 77:     LCD_Set_Cursor(1, 1);
  4552  03DE  01F6               	clrf	LCD_Set_Cursor@COL
  4553  03DF  0AF6               	incf	LCD_Set_Cursor@COL,f
  4554  03E0  3001               	movlw	1
  4555  03E1  3182  2279  3183   	fcall	_LCD_Set_Cursor
  4556  03E4                     l2178:
  4557                           
  4558                           ;main.c: 78:     LCD_Write_String("Press '*' to");
  4559  03E4  30C9               	movlw	low (STR_7| (0+32768))
  4560  03E5  00F6               	movwf	LCD_Write_String@Str
  4561  03E6  3088               	movlw	high (STR_7| (0+32768))
  4562  03E7  00F7               	movwf	LCD_Write_String@Str+1
  4563  03E8  3182  2213  3183   	fcall	_LCD_Write_String
  4564  03EB                     l2180:
  4565                           
  4566                           ;main.c: 79:     LCD_Set_Cursor(2, 1);
  4567  03EB  01F6               	clrf	LCD_Set_Cursor@COL
  4568  03EC  0AF6               	incf	LCD_Set_Cursor@COL,f
  4569  03ED  3002               	movlw	2
  4570  03EE  3182  2279  3183   	fcall	_LCD_Set_Cursor
  4571  03F1                     l2182:
  4572                           
  4573                           ;main.c: 80:     LCD_Write_String("continue ..");
  4574  03F1  30E2               	movlw	low (STR_8| (0+32768))
  4575  03F2  00F6               	movwf	LCD_Write_String@Str
  4576  03F3  3088               	movlw	high (STR_8| (0+32768))
  4577  03F4  00F7               	movwf	LCD_Write_String@Str+1
  4578  03F5  3182  2213  3183   	fcall	_LCD_Write_String
  4579  03F8                     l2184:
  4580                           
  4581                           ;main.c: 82:     Key = 'n';
  4582  03F8  306E               	movlw	110
  4583  03F9  00FB               	movwf	??_main
  4584  03FA  087B               	movf	??_main,w
  4585  03FB  00FD               	movwf	_Key
  4586                           
  4587                           ;main.c: 83:     while(Key != '*')
  4588  03FC  2C05               	goto	l2188
  4589  03FD                     l2186:
  4590                           
  4591                           ;main.c: 84:     {;main.c: 85:         keypad_scanner(&Key, &Val);
  4592  03FD  3029               	movlw	(low (_Val| 0))& (0+255)
  4593  03FE  00FB               	movwf	??_main
  4594  03FF  087B               	movf	??_main,w
  4595  0400  00F0               	movwf	keypad_scanner@val_o
  4596  0401  307D               	movlw	(low (_Key| 0))& (0+255)
  4597  0402  3185  258B  3183   	fcall	_keypad_scanner
  4598  0405                     l2188:
  4599                           
  4600                           ;main.c: 83:     while(Key != '*')
  4601  0405  302A               	movlw	42
  4602  0406  067D               	xorwf	_Key,w
  4603  0407  1D03               	btfss	3,2
  4604  0408  2C0A               	goto	u1301
  4605  0409  2C0B               	goto	u1300
  4606  040A                     u1301:
  4607  040A  2BFD               	goto	l2186
  4608  040B                     u1300:
  4609  040B                     l2190:
  4610  040B  3181  2191  3183   	fcall	_EUSART_is_tx_ready
  4611  040E  3A00               	xorlw	0
  4612  040F  1903               	skipnz
  4613  0410  2C12               	goto	u1311
  4614  0411  2C13               	goto	u1310
  4615  0412                     u1311:
  4616  0412  2C0B               	goto	l2190
  4617  0413                     u1310:
  4618  0413                     l2192:
  4619                           
  4620                           ;main.c: 89:     EUSART_Write(Val);
  4621  0413  0020               	movlb	0	; select bank0
  4622  0414  0829               	movf	_Val,w
  4623  0415  00FB               	movwf	??_main
  4624  0416  087B               	movf	??_main,w
  4625  0417  00F0               	movwf	EUSART_Write@txData
  4626  0418  3181  214B  3183   	fcall	_EUSART_Write
  4627                           
  4628                           ;main.c: 91:     LCD_Clear();
  4629  041B  3181  2154  3183   	fcall	_LCD_Clear
  4630  041E                     l2194:
  4631                           
  4632                           ;main.c: 92:     LCD_Set_Cursor(1, 1);
  4633  041E  01F6               	clrf	LCD_Set_Cursor@COL
  4634  041F  0AF6               	incf	LCD_Set_Cursor@COL,f
  4635  0420  3001               	movlw	1
  4636  0421  3182  2279  3183   	fcall	_LCD_Set_Cursor
  4637  0424                     l2196:
  4638                           
  4639                           ;main.c: 93:     LCD_Write_String("Initialize FPGA");
  4640  0424  3044               	movlw	low (STR_9| (0+32768))
  4641  0425  00F6               	movwf	LCD_Write_String@Str
  4642  0426  3088               	movlw	high (STR_9| (0+32768))
  4643  0427  00F7               	movwf	LCD_Write_String@Str+1
  4644  0428  3182  2213  3183   	fcall	_LCD_Write_String
  4645  042B                     l2198:
  4646                           
  4647                           ;main.c: 94:     LCD_Set_Cursor(2, 1);
  4648  042B  01F6               	clrf	LCD_Set_Cursor@COL
  4649  042C  0AF6               	incf	LCD_Set_Cursor@COL,f
  4650  042D  3002               	movlw	2
  4651  042E  3182  2279  3183   	fcall	_LCD_Set_Cursor
  4652  0431                     l2200:
  4653                           
  4654                           ;main.c: 95:     LCD_Write_String("Please Wait ..");
  4655  0431  3092               	movlw	low (STR_10| (0+32768))
  4656  0432  00F6               	movwf	LCD_Write_String@Str
  4657  0433  3088               	movlw	high (STR_10| (0+32768))
  4658  0434  00F7               	movwf	LCD_Write_String@Str+1
  4659  0435  3182  2213  3183   	fcall	_LCD_Write_String
  4660  0438                     l2202:
  4661                           
  4662                           ;main.c: 97:     _delay((unsigned long)((2000)*(4000000/4000.0)));
  4663  0438  300B               	movlw	11
  4664  0439  00FC               	movwf	??_main+1
  4665  043A  3026               	movlw	38
  4666  043B  00FB               	movwf	??_main
  4667  043C  305E               	movlw	94
  4668  043D                     u1427:
  4669  043D  0B89               	decfsz	9,f
  4670  043E  2C3D               	goto	u1427
  4671  043F  0BFB               	decfsz	??_main,f
  4672  0440  2C3D               	goto	u1427
  4673  0441  0BFC               	decfsz	??_main+1,f
  4674  0442  2C3D               	goto	u1427
  4675  0443                     l2204:
  4676                           
  4677                           ;main.c: 100:     {;main.c: 101:         LCD_Clear();
  4678  0443  3181  2154  3183   	fcall	_LCD_Clear
  4679  0446                     l2206:
  4680                           
  4681                           ;main.c: 102:         LCD_Set_Cursor(1, 1);
  4682  0446  01F6               	clrf	LCD_Set_Cursor@COL
  4683  0447  0AF6               	incf	LCD_Set_Cursor@COL,f
  4684  0448  3001               	movlw	1
  4685  0449  3182  2279  3183   	fcall	_LCD_Set_Cursor
  4686  044C                     l2208:
  4687                           
  4688                           ;main.c: 103:         LCD_Write_String("Enter Password: ");
  4689  044C  3000               	movlw	low (STR_11| (0+32768))
  4690  044D  00F6               	movwf	LCD_Write_String@Str
  4691  044E  3088               	movlw	high (STR_11| (0+32768))
  4692  044F  00F7               	movwf	LCD_Write_String@Str+1
  4693  0450  3182  2213  3183   	fcall	_LCD_Write_String
  4694  0453                     l2210:
  4695                           
  4696                           ;main.c: 104:         LCD_Set_Cursor(2, 1);
  4697  0453  01F6               	clrf	LCD_Set_Cursor@COL
  4698  0454  0AF6               	incf	LCD_Set_Cursor@COL,f
  4699  0455  3002               	movlw	2
  4700  0456  3182  2279  3183   	fcall	_LCD_Set_Cursor
  4701  0459                     l2212:
  4702                           
  4703                           ;main.c: 106:         counter = 0;
  4704  0459  0020               	movlb	0	; select bank0
  4705  045A  01B3               	clrf	_counter
  4706  045B  01B4               	clrf	_counter+1
  4707                           
  4708                           ;main.c: 107:         while( (counter < 13) && (Key != '#') )
  4709  045C  2CA7               	goto	l2238
  4710  045D                     l2214:
  4711                           
  4712                           ;main.c: 108:         {;main.c: 110:             switch_press_scan(&Key, &Val);
  4713  045D  3029               	movlw	(low (_Val| 0))& (0+255)
  4714  045E  00FB               	movwf	??_main
  4715  045F  087B               	movf	??_main,w
  4716  0460  00F3               	movwf	switch_press_scan@val_o
  4717  0461  307D               	movlw	(low (_Key| 0))& (0+255)
  4718  0462  3182  2252  3183   	fcall	_switch_press_scan
  4719  0465                     l2216:
  4720                           
  4721                           ;main.c: 111:             LCD_Write_Char(Key);
  4722  0465  087D               	movf	_Key,w
  4723  0466  3181  21FD  3183   	fcall	_LCD_Write_Char
  4724  0469                     l2218:
  4725                           
  4726                           ;main.c: 112:             ID = counter;
  4727  0469  0020               	movlb	0	; select bank0
  4728  046A  0834               	movf	_counter+1,w
  4729  046B  00A1               	movwf	_ID+1
  4730  046C  0833               	movf	_counter,w
  4731  046D  00A0               	movwf	_ID
  4732  046E                     l2220:
  4733                           
  4734                           ;main.c: 113:             ID &= 0x0F;
  4735  046E  300F               	movlw	15
  4736  046F  05A0               	andwf	_ID,f
  4737  0470  3000               	movlw	0
  4738  0471  05A1               	andwf	_ID+1,f
  4739  0472                     l2222:
  4740                           
  4741                           ;main.c: 114:             ID <<= 4;
  4742  0472  3004               	movlw	4
  4743  0473                     u1325:
  4744  0473  35A0               	lslf	_ID,f
  4745  0474  0DA1               	rlf	_ID+1,f
  4746  0475  0B89               	decfsz	9,f
  4747  0476  2C73               	goto	u1325
  4748  0477                     l2224:
  4749                           
  4750                           ;main.c: 115:             Code = Val;
  4751  0477  082A               	movf	_Val+1,w
  4752  0478  00A3               	movwf	_Code+1
  4753  0479  0829               	movf	_Val,w
  4754  047A  00A2               	movwf	_Code
  4755  047B                     l2226:
  4756                           
  4757                           ;main.c: 116:             Code &= 0x0F;
  4758  047B  300F               	movlw	15
  4759  047C  05A2               	andwf	_Code,f
  4760  047D  3000               	movlw	0
  4761  047E  05A3               	andwf	_Code+1,f
  4762  047F                     l2228:
  4763                           
  4764                           ;main.c: 117:             Val_mod = ID | Code;
  4765  047F  0822               	movf	_Code,w
  4766  0480  0420               	iorwf	_ID,w
  4767  0481  00A4               	movwf	_Val_mod
  4768  0482  0823               	movf	_Code+1,w
  4769  0483  0421               	iorwf	_ID+1,w
  4770  0484  00A5               	movwf	_Val_mod+1
  4771  0485                     l2230:	
  4772                           ;main.c: 118:             while(!EUSART_is_tx_ready());
  4773                           
  4774  0485  3181  2191  3183   	fcall	_EUSART_is_tx_ready
  4775  0488  3A00               	xorlw	0
  4776  0489  1903               	skipnz
  4777  048A  2C8C               	goto	u1331
  4778  048B  2C8D               	goto	u1330
  4779  048C                     u1331:
  4780  048C  2C85               	goto	l2230
  4781  048D                     u1330:
  4782  048D                     l2232:
  4783                           
  4784                           ;main.c: 119:             EUSART_Write(Val_mod);
  4785  048D  0020               	movlb	0	; select bank0
  4786  048E  0824               	movf	_Val_mod,w
  4787  048F  00FB               	movwf	??_main
  4788  0490  087B               	movf	??_main,w
  4789  0491  00F0               	movwf	EUSART_Write@txData
  4790  0492  3181  214B  3183   	fcall	_EUSART_Write
  4791  0495                     l2234:
  4792                           
  4793                           ;main.c: 120:             counter = counter + 1;
  4794  0495  0020               	movlb	0	; select bank0
  4795  0496  0833               	movf	_counter,w
  4796  0497  3E01               	addlw	1
  4797  0498  00B3               	movwf	_counter
  4798  0499  3000               	movlw	0
  4799  049A  3D34               	addwfc	_counter+1,w
  4800  049B  00B4               	movwf	_counter+1
  4801  049C                     l2236:
  4802                           
  4803                           ;main.c: 121:             _delay((unsigned long)((500)*(4000000/4000.0)));
  4804  049C  3003               	movlw	3
  4805  049D  00FC               	movwf	??_main+1
  4806  049E  308A               	movlw	138
  4807  049F  00FB               	movwf	??_main
  4808  04A0  3056               	movlw	86
  4809  04A1                     u1437:
  4810  04A1  0B89               	decfsz	9,f
  4811  04A2  2CA1               	goto	u1437
  4812  04A3  0BFB               	decfsz	??_main,f
  4813  04A4  2CA1               	goto	u1437
  4814  04A5  0BFC               	decfsz	??_main+1,f
  4815  04A6  2CA1               	goto	u1437
  4816  04A7                     l2238:
  4817                           
  4818                           ;main.c: 107:         while( (counter < 13) && (Key != '#') )
  4819  04A7  3000               	movlw	0
  4820  04A8  0020               	movlb	0	; select bank0
  4821  04A9  0234               	subwf	_counter+1,w
  4822  04AA  300D               	movlw	13
  4823  04AB  1903               	skipnz
  4824  04AC  0233               	subwf	_counter,w
  4825  04AD  1803               	skipnc
  4826  04AE  2CB0               	goto	u1341
  4827  04AF  2CB1               	goto	u1340
  4828  04B0                     u1341:
  4829  04B0  2CB7               	goto	l2242
  4830  04B1                     u1340:
  4831  04B1                     l2240:
  4832  04B1  3023               	movlw	35
  4833  04B2  067D               	xorwf	_Key,w
  4834  04B3  1D03               	btfss	3,2
  4835  04B4  2CB6               	goto	u1351
  4836  04B5  2CB7               	goto	u1350
  4837  04B6                     u1351:
  4838  04B6  2C5D               	goto	l2214
  4839  04B7                     u1350:
  4840  04B7                     l2242:
  4841                           
  4842                           ;main.c: 124:         LCD_Clear();
  4843  04B7  3181  2154  3183   	fcall	_LCD_Clear
  4844  04BA                     l2244:
  4845                           
  4846                           ;main.c: 125:         LCD_Set_Cursor(1, 1);
  4847  04BA  01F6               	clrf	LCD_Set_Cursor@COL
  4848  04BB  0AF6               	incf	LCD_Set_Cursor@COL,f
  4849  04BC  3001               	movlw	1
  4850  04BD  3182  2279  3183   	fcall	_LCD_Set_Cursor
  4851  04C0                     l2246:
  4852                           
  4853                           ;main.c: 126:         LCD_Write_String("FPGA Processing");
  4854  04C0  3054               	movlw	low (STR_12| (0+32768))
  4855  04C1  00F6               	movwf	LCD_Write_String@Str
  4856  04C2  3088               	movlw	high (STR_12| (0+32768))
  4857  04C3  00F7               	movwf	LCD_Write_String@Str+1
  4858  04C4  3182  2213  3183   	fcall	_LCD_Write_String
  4859  04C7                     l2248:
  4860                           
  4861                           ;main.c: 127:         LCD_Set_Cursor(2, 1);
  4862  04C7  01F6               	clrf	LCD_Set_Cursor@COL
  4863  04C8  0AF6               	incf	LCD_Set_Cursor@COL,f
  4864  04C9  3002               	movlw	2
  4865  04CA  3182  2279  3183   	fcall	_LCD_Set_Cursor
  4866  04CD                     l2250:
  4867                           
  4868                           ;main.c: 128:         LCD_Write_String("Please Wait ..");
  4869  04CD  3092               	movlw	low (STR_10| (0+32768))
  4870  04CE  00F6               	movwf	LCD_Write_String@Str
  4871  04CF  3088               	movlw	high (STR_10| (0+32768))
  4872  04D0  00F7               	movwf	LCD_Write_String@Str+1
  4873  04D1  3182  2213  3183   	fcall	_LCD_Write_String
  4874  04D4                     l2252:
  4875                           
  4876                           ;main.c: 130:         code = EUSART_Read();
  4877  04D4  3181  2182  3183   	fcall	_EUSART_Read
  4878  04D7  00FB               	movwf	??_main
  4879  04D8  087B               	movf	??_main,w
  4880  04D9  0020               	movlb	0	; select bank0
  4881  04DA  00A6               	movwf	_code
  4882  04DB                     l2254:
  4883                           
  4884                           ;main.c: 131:         RC1STA = 0x00;
  4885  04DB  0023               	movlb	3	; select bank3
  4886  04DC  019D               	clrf	29	;volatile
  4887  04DD                     l2256:
  4888                           
  4889                           ;main.c: 133:         _delay((unsigned long)((2000)*(4000000/4000.0)));
  4890  04DD  300B               	movlw	11
  4891  04DE  00FC               	movwf	??_main+1
  4892  04DF  3026               	movlw	38
  4893  04E0  00FB               	movwf	??_main
  4894  04E1  305E               	movlw	94
  4895  04E2                     u1447:
  4896  04E2  0B89               	decfsz	9,f
  4897  04E3  2CE2               	goto	u1447
  4898  04E4  0BFB               	decfsz	??_main,f
  4899  04E5  2CE2               	goto	u1447
  4900  04E6  0BFC               	decfsz	??_main+1,f
  4901  04E7  2CE2               	goto	u1447
  4902                           
  4903                           ;main.c: 135:         if (code == 0x63)
  4904  04E8  3063               	movlw	99
  4905  04E9  0020               	movlb	0	; select bank0
  4906  04EA  0626               	xorwf	_code,w
  4907  04EB  1D03               	btfss	3,2
  4908  04EC  2CEE               	goto	u1361
  4909  04ED  2CEF               	goto	u1360
  4910  04EE                     u1361:
  4911  04EE  2D0D               	goto	l2268
  4912  04EF                     u1360:
  4913  04EF                     l2258:
  4914                           
  4915                           ;main.c: 136:         {;main.c: 137:             LCD_Clear();
  4916  04EF  3181  2154  3183   	fcall	_LCD_Clear
  4917  04F2                     l2260:
  4918                           
  4919                           ;main.c: 138:             LCD_Set_Cursor(1, 1);
  4920  04F2  01F6               	clrf	LCD_Set_Cursor@COL
  4921  04F3  0AF6               	incf	LCD_Set_Cursor@COL,f
  4922  04F4  3001               	movlw	1
  4923  04F5  3182  2279  3183   	fcall	_LCD_Set_Cursor
  4924  04F8                     l2262:
  4925                           
  4926                           ;main.c: 139:             LCD_Write_String("Code is correct");
  4927  04F8  3064               	movlw	low (STR_14| (0+32768))
  4928  04F9  00F6               	movwf	LCD_Write_String@Str
  4929  04FA  3088               	movlw	high (STR_14| (0+32768))
  4930  04FB  00F7               	movwf	LCD_Write_String@Str+1
  4931  04FC  3182  2213  3183   	fcall	_LCD_Write_String
  4932  04FF                     l2264:
  4933                           
  4934                           ;main.c: 140:             LCD_Set_Cursor(2, 1);
  4935  04FF  01F6               	clrf	LCD_Set_Cursor@COL
  4936  0500  0AF6               	incf	LCD_Set_Cursor@COL,f
  4937  0501  3002               	movlw	2
  4938  0502  3182  2279  3183   	fcall	_LCD_Set_Cursor
  4939  0505                     l2266:
  4940                           
  4941                           ;main.c: 141:             LCD_Write_String("Thank you ..");
  4942  0505  30BC               	movlw	low (STR_15| (0+32768))
  4943  0506  00F6               	movwf	LCD_Write_String@Str
  4944  0507  3088               	movlw	high (STR_15| (0+32768))
  4945  0508  00F7               	movwf	LCD_Write_String@Str+1
  4946  0509  3182  2213  3183   	fcall	_LCD_Write_String
  4947                           
  4948                           ;main.c: 142:         }
  4949  050C  2D1D               	goto	l2274
  4950  050D                     l2268:
  4951                           
  4952                           ;main.c: 144:         {;main.c: 145:             LCD_Clear();
  4953  050D  3181  2154  3183   	fcall	_LCD_Clear
  4954  0510                     l2270:
  4955                           
  4956                           ;main.c: 146:             LCD_Set_Cursor(1, 1);
  4957  0510  01F6               	clrf	LCD_Set_Cursor@COL
  4958  0511  0AF6               	incf	LCD_Set_Cursor@COL,f
  4959  0512  3001               	movlw	1
  4960  0513  3182  2279  3183   	fcall	_LCD_Set_Cursor
  4961  0516                     l2272:
  4962                           
  4963                           ;main.c: 147:             LCD_Write_String("Code is wrong");
  4964  0516  30A1               	movlw	low (STR_16| (0+32768))
  4965  0517  00F6               	movwf	LCD_Write_String@Str
  4966  0518  3088               	movlw	high (STR_16| (0+32768))
  4967  0519  00F7               	movwf	LCD_Write_String@Str+1
  4968  051A  3182  2213  3183   	fcall	_LCD_Write_String
  4969  051D                     l2274:
  4970                           
  4971                           ;main.c: 149:         _delay((unsigned long)((2000)*(4000000/4000.0)));
  4972  051D  300B               	movlw	11
  4973  051E  00FC               	movwf	??_main+1
  4974  051F  3026               	movlw	38
  4975  0520  00FB               	movwf	??_main
  4976  0521  305E               	movlw	94
  4977  0522                     u1457:
  4978  0522  0B89               	decfsz	9,f
  4979  0523  2D22               	goto	u1457
  4980  0524  0BFB               	decfsz	??_main,f
  4981  0525  2D22               	goto	u1457
  4982  0526  0BFC               	decfsz	??_main+1,f
  4983  0527  2D22               	goto	u1457
  4984  0528                     l2276:
  4985                           
  4986                           ;main.c: 151:         LCD_Clear();
  4987  0528  3181  2154  3183   	fcall	_LCD_Clear
  4988  052B                     l2278:
  4989                           
  4990                           ;main.c: 152:         LCD_Set_Cursor(1, 1);
  4991  052B  01F6               	clrf	LCD_Set_Cursor@COL
  4992  052C  0AF6               	incf	LCD_Set_Cursor@COL,f
  4993  052D  3001               	movlw	1
  4994  052E  3182  2279  3183   	fcall	_LCD_Set_Cursor
  4995  0531                     l2280:
  4996                           
  4997                           ;main.c: 153:         LCD_Write_String("Press '*' to");
  4998  0531  30C9               	movlw	low (STR_7| (0+32768))
  4999  0532  00F6               	movwf	LCD_Write_String@Str
  5000  0533  3088               	movlw	high (STR_7| (0+32768))
  5001  0534  00F7               	movwf	LCD_Write_String@Str+1
  5002  0535  3182  2213  3183   	fcall	_LCD_Write_String
  5003  0538                     l2282:
  5004                           
  5005                           ;main.c: 154:         LCD_Set_Cursor(2, 1);
  5006  0538  01F6               	clrf	LCD_Set_Cursor@COL
  5007  0539  0AF6               	incf	LCD_Set_Cursor@COL,f
  5008  053A  3002               	movlw	2
  5009  053B  3182  2279  3183   	fcall	_LCD_Set_Cursor
  5010  053E                     l2284:
  5011                           
  5012                           ;main.c: 155:         LCD_Write_String("try again ..");
  5013  053E  30AF               	movlw	low (STR_18| (0+32768))
  5014  053F  00F6               	movwf	LCD_Write_String@Str
  5015  0540  3088               	movlw	high (STR_18| (0+32768))
  5016  0541  00F7               	movwf	LCD_Write_String@Str+1
  5017  0542  3182  2213  3183   	fcall	_LCD_Write_String
  5018                           
  5019                           ;main.c: 157:         Key = 'n';
  5020  0545  306E               	movlw	110
  5021  0546  00FB               	movwf	??_main
  5022  0547  087B               	movf	??_main,w
  5023  0548  00FD               	movwf	_Key
  5024                           
  5025                           ;main.c: 158:         while(Key != '*')
  5026  0549  2D52               	goto	l2288
  5027  054A                     l2286:
  5028                           
  5029                           ;main.c: 159:         {;main.c: 160:             keypad_scanner(&Key, &Val);
  5030  054A  3029               	movlw	(low (_Val| 0))& (0+255)
  5031  054B  00FB               	movwf	??_main
  5032  054C  087B               	movf	??_main,w
  5033  054D  00F0               	movwf	keypad_scanner@val_o
  5034  054E  307D               	movlw	(low (_Key| 0))& (0+255)
  5035  054F  3185  258B  3183   	fcall	_keypad_scanner
  5036  0552                     l2288:
  5037                           
  5038                           ;main.c: 158:         while(Key != '*')
  5039  0552  302A               	movlw	42
  5040  0553  067D               	xorwf	_Key,w
  5041  0554  1D03               	btfss	3,2
  5042  0555  2D57               	goto	u1371
  5043  0556  2D58               	goto	u1370
  5044  0557                     u1371:
  5045  0557  2D4A               	goto	l2286
  5046  0558                     u1370:
  5047  0558                     l2290:
  5048                           
  5049                           ;main.c: 163:         RC1STA = 0x90;
  5050  0558  3090               	movlw	144
  5051  0559  0023               	movlb	3	; select bank3
  5052  055A  009D               	movwf	29	;volatile
  5053  055B                     l2292:	
  5054                           ;main.c: 165:         while(!EUSART_is_tx_ready());
  5055                           
  5056  055B  3181  2191  3183   	fcall	_EUSART_is_tx_ready
  5057  055E  3A00               	xorlw	0
  5058  055F  1903               	skipnz
  5059  0560  2D62               	goto	u1381
  5060  0561  2D63               	goto	u1380
  5061  0562                     u1381:
  5062  0562  2D5B               	goto	l2292
  5063  0563                     u1380:
  5064  0563                     l2294:
  5065                           
  5066                           ;main.c: 166:         EUSART_Write(Val);
  5067  0563  0020               	movlb	0	; select bank0
  5068  0564  0829               	movf	_Val,w
  5069  0565  00FB               	movwf	??_main
  5070  0566  087B               	movf	??_main,w
  5071  0567  00F0               	movwf	EUSART_Write@txData
  5072  0568  3181  214B  3183   	fcall	_EUSART_Write
  5073                           
  5074                           ;main.c: 168:         LCD_Clear();
  5075  056B  3181  2154  3183   	fcall	_LCD_Clear
  5076  056E                     l2296:
  5077                           
  5078                           ;main.c: 169:         LCD_Set_Cursor(1, 1);
  5079  056E  01F6               	clrf	LCD_Set_Cursor@COL
  5080  056F  0AF6               	incf	LCD_Set_Cursor@COL,f
  5081  0570  3001               	movlw	1
  5082  0571  3182  2279  3183   	fcall	_LCD_Set_Cursor
  5083  0574                     l2298:
  5084                           
  5085                           ;main.c: 170:         LCD_Write_String("Initialize FPGA");
  5086  0574  3044               	movlw	low (STR_9| (0+32768))
  5087  0575  00F6               	movwf	LCD_Write_String@Str
  5088  0576  3088               	movlw	high (STR_9| (0+32768))
  5089  0577  00F7               	movwf	LCD_Write_String@Str+1
  5090  0578  3182  2213  3183   	fcall	_LCD_Write_String
  5091  057B                     l2300:
  5092                           
  5093                           ;main.c: 171:         LCD_Set_Cursor(2, 1);
  5094  057B  01F6               	clrf	LCD_Set_Cursor@COL
  5095  057C  0AF6               	incf	LCD_Set_Cursor@COL,f
  5096  057D  3002               	movlw	2
  5097  057E  3182  2279  3183   	fcall	_LCD_Set_Cursor
  5098  0581                     l2302:
  5099                           
  5100                           ;main.c: 172:         LCD_Write_String("Please Wait ..");
  5101  0581  3092               	movlw	low (STR_10| (0+32768))
  5102  0582  00F6               	movwf	LCD_Write_String@Str
  5103  0583  3088               	movlw	high (STR_10| (0+32768))
  5104  0584  00F7               	movwf	LCD_Write_String@Str+1
  5105  0585  3182  2213  3183   	fcall	_LCD_Write_String
  5106  0588  2C38               	goto	l2202
  5107  0589  3180  2802         	ljmp	start
  5108  058B                     __end_of_main:
  5109                           
  5110                           	psect	text1
  5111  0252                     __ptext1:	
  5112 ;; *************** function _switch_press_scan *****************
  5113 ;; Defined at:
  5114 ;;		line 12 in file "mcc_generated_files/keypad.c"
  5115 ;; Parameters:    Size  Location     Type
  5116 ;;  key_o           1    wreg     PTR unsigned char 
  5117 ;;		 -> Key(1), 
  5118 ;;  val_o           1    3[COMMON] PTR unsigned int 
  5119 ;;		 -> Val(2), 
  5120 ;; Auto vars:     Size  Location     Type
  5121 ;;  key_o           1    5[COMMON] PTR unsigned char 
  5122 ;;		 -> Key(1), 
  5123 ;;  val             2    6[COMMON] unsigned int 
  5124 ;;  key             1    8[COMMON] unsigned char 
  5125 ;; Return value:  Size  Location     Type
  5126 ;;                  1    wreg      void 
  5127 ;; Registers used:
  5128 ;;		wreg, fsr1l, fsr1h, status,2, status,0, pclath, cstack
  5129 ;; Tracked objects:
  5130 ;;		On entry : 0/0
  5131 ;;		On exit  : 0/0
  5132 ;;		Unchanged: 0/0
  5133 ;; Data sizes:     COMMON   BANK0   BANK1   BANK2   BANK3   BANK4   BANK5   BANK6   BANK7   BANK8   BANK9  BANK10  BANK1
      +1  BANK12
  5134 ;;      Params:         1       0       0       0       0       0       0       0       0       0       0       0       
      +0       0
  5135 ;;      Locals:         4       0       0       0       0       0       0       0       0       0       0       0       
      +0       0
  5136 ;;      Temps:          1       0       0       0       0       0       0       0       0       0       0       0       
      +0       0
  5137 ;;      Totals:         6       0       0       0       0       0       0       0       0       0       0       0       
      +0       0
  5138 ;;Total ram usage:        6 bytes
  5139 ;; Hardware stack levels used: 1
  5140 ;; Hardware stack levels required when called: 1
  5141 ;; This function calls:
  5142 ;;		_keypad_scanner
  5143 ;; This function is called by:
  5144 ;;		_main
  5145 ;; This function uses a non-reentrant model
  5146 ;;
  5147                           
  5148                           
  5149                           ;psect for function _switch_press_scan
  5150  0252                     _switch_press_scan:
  5151                           
  5152                           ;incstack = 0
  5153                           ; Regs used in _switch_press_scan: [wreg+fsr1l+fsr1h+status,2+status,0+pclath+cstack]
  5154                           ;switch_press_scan@key_o stored from wreg
  5155  0252  00F5               	movwf	switch_press_scan@key_o
  5156  0253                     l2088:
  5157                           
  5158                           ;mcc_generated_files/keypad.c: 12: void switch_press_scan(char *key_o, unsigned int *val
      +                          _o);mcc_generated_files/keypad.c: 13: {;mcc_generated_files/keypad.c: 14:     char key =
      +                           'n';
  5159  0253  306E               	movlw	110
  5160  0254  00F4               	movwf	??_switch_press_scan
  5161  0255  0874               	movf	??_switch_press_scan,w
  5162  0256  00F8               	movwf	switch_press_scan@key
  5163                           
  5164                           ;mcc_generated_files/keypad.c: 15:     unsigned int val = 0xFF;
  5165  0257  30FF               	movlw	255
  5166  0258  00F6               	movwf	switch_press_scan@val
  5167  0259  3000               	movlw	0
  5168  025A  00F7               	movwf	switch_press_scan@val+1
  5169                           
  5170                           ;mcc_generated_files/keypad.c: 17:             while(key == 'n')
  5171  025B  2A64               	goto	l2092
  5172  025C                     l2090:
  5173                           
  5174                           ;mcc_generated_files/keypad.c: 18:             {;mcc_generated_files/keypad.c: 19:      
      +                                     keypad_scanner(&key, &val);
  5175  025C  3076               	movlw	(low (switch_press_scan@val| 0))& (0+255)
  5176  025D  00F4               	movwf	??_switch_press_scan
  5177  025E  0874               	movf	??_switch_press_scan,w
  5178  025F  00F0               	movwf	keypad_scanner@val_o
  5179  0260  3078               	movlw	(low (switch_press_scan@key| 0))& (0+255)
  5180  0261  3185  258B  3182   	fcall	_keypad_scanner
  5181  0264                     l2092:
  5182                           
  5183                           ;mcc_generated_files/keypad.c: 17:             while(key == 'n')
  5184  0264  306E               	movlw	110
  5185  0265  0678               	xorwf	switch_press_scan@key,w
  5186  0266  1903               	btfsc	3,2
  5187  0267  2A69               	goto	u1241
  5188  0268  2A6A               	goto	u1240
  5189  0269                     u1241:
  5190  0269  2A5C               	goto	l2090
  5191  026A                     u1240:
  5192  026A                     l2094:
  5193                           
  5194                           ;mcc_generated_files/keypad.c: 22:     *key_o = key;
  5195  026A  0878               	movf	switch_press_scan@key,w
  5196  026B  00F4               	movwf	??_switch_press_scan
  5197  026C  0875               	movf	switch_press_scan@key_o,w
  5198  026D  0086               	movwf	6
  5199  026E  0187               	clrf	7
  5200  026F  0874               	movf	??_switch_press_scan,w
  5201  0270  0081               	movwf	1
  5202                           
  5203                           ;mcc_generated_files/keypad.c: 23:     *val_o = val;
  5204  0271  0873               	movf	switch_press_scan@val_o,w
  5205  0272  0086               	movwf	6
  5206  0273  0187               	clrf	7
  5207  0274  0876               	movf	switch_press_scan@val,w
  5208  0275  3FC0               	movwi [0]fsr1
  5209  0276  0877               	movf	switch_press_scan@val+1,w
  5210  0277  3FC1               	movwi [1]fsr1
  5211  0278                     l198:
  5212  0278  0008               	return
  5213  0279                     __end_of_switch_press_scan:
  5214                           
  5215                           	psect	text2
  5216  058B                     __ptext2:	
  5217 ;; *************** function _keypad_scanner *****************
  5218 ;; Defined at:
  5219 ;;		line 26 in file "mcc_generated_files/keypad.c"
  5220 ;; Parameters:    Size  Location     Type
  5221 ;;  key_o           1    wreg     PTR unsigned char 
  5222 ;;		 -> Key(1), switch_press_scan@key(1), 
  5223 ;;  val_o           1    0[COMMON] PTR unsigned int 
  5224 ;;		 -> Val(2), switch_press_scan@val(2), 
  5225 ;; Auto vars:     Size  Location     Type
  5226 ;;  key_o           1    2[COMMON] PTR unsigned char 
  5227 ;;		 -> Key(1), switch_press_scan@key(1), 
  5228 ;; Return value:  Size  Location     Type
  5229 ;;                  1    wreg      void 
  5230 ;; Registers used:
  5231 ;;		wreg, fsr1l, fsr1h, status,2, status,0
  5232 ;; Tracked objects:
  5233 ;;		On entry : 0/0
  5234 ;;		On exit  : 0/0
  5235 ;;		Unchanged: 0/0
  5236 ;; Data sizes:     COMMON   BANK0   BANK1   BANK2   BANK3   BANK4   BANK5   BANK6   BANK7   BANK8   BANK9  BANK10  BANK1
      +1  BANK12
  5237 ;;      Params:         1       0       0       0       0       0       0       0       0       0       0       0       
      +0       0
  5238 ;;      Locals:         1       0       0       0       0       0       0       0       0       0       0       0       
      +0       0
  5239 ;;      Temps:          1       0       0       0       0       0       0       0       0       0       0       0       
      +0       0
  5240 ;;      Totals:         3       0       0       0       0       0       0       0       0       0       0       0       
      +0       0
  5241 ;;Total ram usage:        3 bytes
  5242 ;; Hardware stack levels used: 1
  5243 ;; This function calls:
  5244 ;;		Nothing
  5245 ;; This function is called by:
  5246 ;;		_switch_press_scan
  5247 ;;		_main
  5248 ;; This function uses a non-reentrant model
  5249 ;;
  5250                           
  5251                           
  5252                           ;psect for function _keypad_scanner
  5253  058B                     _keypad_scanner:
  5254                           
  5255                           ;incstack = 0
  5256                           ; Regs used in _keypad_scanner: [wreg+fsr1l+fsr1h+status,2+status,0]
  5257                           ;keypad_scanner@key_o stored from wreg
  5258  058B  00F2               	movwf	keypad_scanner@key_o
  5259  058C                     l1806:
  5260                           
  5261                           ;mcc_generated_files/keypad.c: 26: void keypad_scanner(char *key_o, unsigned int *val_o)
      +                          ;mcc_generated_files/keypad.c: 27: {;mcc_generated_files/keypad.c: 28:     *key_o = 'n';
      +                           *val_o = 0xFF;
  5262  058C  306E               	movlw	110
  5263  058D  00F1               	movwf	??_keypad_scanner
  5264  058E  0872               	movf	keypad_scanner@key_o,w
  5265  058F  0086               	movwf	6
  5266  0590  0187               	clrf	7
  5267  0591  0871               	movf	??_keypad_scanner,w
  5268  0592  0081               	movwf	1
  5269  0593                     l1808:
  5270  0593  0870               	movf	keypad_scanner@val_o,w
  5271  0594  0086               	movwf	6
  5272  0595  0187               	clrf	7
  5273  0596  30FF               	movlw	255
  5274  0597  3FC0               	movwi [0]fsr1
  5275  0598  3000               	movlw	0
  5276  0599  3FC1               	movwi [1]fsr1
  5277  059A                     l1810:
  5278                           
  5279                           ;mcc_generated_files/keypad.c: 30:     LATAbits.LATA1 = 0; LATAbits.LATA2 = 1; LATCbits.
      +                          LATC0 = 1; LATCbits.LATC1 = 1;
  5280  059A  0022               	movlb	2	; select bank2
  5281  059B  108C               	bcf	12,1	;volatile
  5282  059C                     l1812:
  5283  059C  150C               	bsf	12,2	;volatile
  5284  059D                     l1814:
  5285  059D  140E               	bsf	14,0	;volatile
  5286  059E                     l1816:
  5287  059E  148E               	bsf	14,1	;volatile
  5288  059F                     l1818:
  5289                           
  5290                           ;mcc_generated_files/keypad.c: 32:     if (PORTCbits.RC2 == 0) {_delay((unsigned long)((
      +                          50)*(4000000/4000.0))); if (PORTCbits.RC2 == 0) {while(PORTCbits.RC2 == 0); *key_o = '1'
      +                          ; *val_o = 0x01;}}
  5291  059F  0020               	movlb	0	; select bank0
  5292  05A0  190E               	btfsc	14,2	;volatile
  5293  05A1  2DA3               	goto	u751
  5294  05A2  2DA4               	goto	u750
  5295  05A3                     u751:
  5296  05A3  2DC3               	goto	l1830
  5297  05A4                     u750:
  5298  05A4                     l1820:
  5299  05A4  3041               	movlw	65
  5300  05A5  00F1               	movwf	??_keypad_scanner
  5301  05A6  30EE               	movlw	238
  5302  05A7                     u1467:
  5303  05A7  0B89               	decfsz	9,f
  5304  05A8  2DA7               	goto	u1467
  5305  05A9  0BF1               	decfsz	??_keypad_scanner,f
  5306  05AA  2DA7               	goto	u1467
  5307  05AB  3200               	nop2
  5308  05AC                     l1822:
  5309  05AC  0020               	movlb	0	; select bank0
  5310  05AD  190E               	btfsc	14,2	;volatile
  5311  05AE  2DB0               	goto	u761
  5312  05AF  2DB1               	goto	u760
  5313  05B0                     u761:
  5314  05B0  2DC3               	goto	l1830
  5315  05B1                     u760:
  5316  05B1                     l203:
  5317  05B1  1D0E               	btfss	14,2	;volatile
  5318  05B2  2DB4               	goto	u771
  5319  05B3  2DB5               	goto	u770
  5320  05B4                     u771:
  5321  05B4  2DB1               	goto	l203
  5322  05B5                     u770:
  5323  05B5                     l1826:
  5324  05B5  3031               	movlw	49
  5325  05B6  00F1               	movwf	??_keypad_scanner
  5326  05B7  0872               	movf	keypad_scanner@key_o,w
  5327  05B8  0086               	movwf	6
  5328  05B9  0187               	clrf	7
  5329  05BA  0871               	movf	??_keypad_scanner,w
  5330  05BB  0081               	movwf	1
  5331  05BC                     l1828:
  5332  05BC  0870               	movf	keypad_scanner@val_o,w
  5333  05BD  0086               	movwf	6
  5334  05BE  0187               	clrf	7
  5335  05BF  3001               	movlw	1
  5336  05C0  3FC0               	movwi [0]fsr1
  5337  05C1  3000               	movlw	0
  5338  05C2  3FC1               	movwi [1]fsr1
  5339  05C3                     l1830:
  5340                           
  5341                           ;mcc_generated_files/keypad.c: 33:     if (PORTBbits.RB4 == 0) {_delay((unsigned long)((
      +                          50)*(4000000/4000.0))); if (PORTBbits.RB4 == 0) {while(PORTBbits.RB4 == 0); *key_o = '2'
      +                          ; *val_o = 0x02;}}
  5342  05C3  1A0D               	btfsc	13,4	;volatile
  5343  05C4  2DC6               	goto	u781
  5344  05C5  2DC7               	goto	u780
  5345  05C6                     u781:
  5346  05C6  2DE6               	goto	l1842
  5347  05C7                     u780:
  5348  05C7                     l1832:
  5349  05C7  3041               	movlw	65
  5350  05C8  00F1               	movwf	??_keypad_scanner
  5351  05C9  30EE               	movlw	238
  5352  05CA                     u1477:
  5353  05CA  0B89               	decfsz	9,f
  5354  05CB  2DCA               	goto	u1477
  5355  05CC  0BF1               	decfsz	??_keypad_scanner,f
  5356  05CD  2DCA               	goto	u1477
  5357  05CE  3200               	nop2
  5358  05CF                     l1834:
  5359  05CF  0020               	movlb	0	; select bank0
  5360  05D0  1A0D               	btfsc	13,4	;volatile
  5361  05D1  2DD3               	goto	u791
  5362  05D2  2DD4               	goto	u790
  5363  05D3                     u791:
  5364  05D3  2DE6               	goto	l1842
  5365  05D4                     u790:
  5366  05D4                     l208:
  5367  05D4  1E0D               	btfss	13,4	;volatile
  5368  05D5  2DD7               	goto	u801
  5369  05D6  2DD8               	goto	u800
  5370  05D7                     u801:
  5371  05D7  2DD4               	goto	l208
  5372  05D8                     u800:
  5373  05D8                     l1838:
  5374  05D8  3032               	movlw	50
  5375  05D9  00F1               	movwf	??_keypad_scanner
  5376  05DA  0872               	movf	keypad_scanner@key_o,w
  5377  05DB  0086               	movwf	6
  5378  05DC  0187               	clrf	7
  5379  05DD  0871               	movf	??_keypad_scanner,w
  5380  05DE  0081               	movwf	1
  5381  05DF                     l1840:
  5382  05DF  0870               	movf	keypad_scanner@val_o,w
  5383  05E0  0086               	movwf	6
  5384  05E1  0187               	clrf	7
  5385  05E2  3002               	movlw	2
  5386  05E3  3FC0               	movwi [0]fsr1
  5387  05E4  3000               	movlw	0
  5388  05E5  3FC1               	movwi [1]fsr1
  5389  05E6                     l1842:
  5390                           
  5391                           ;mcc_generated_files/keypad.c: 34:     if (PORTBbits.RB5 == 0) {_delay((unsigned long)((
      +                          50)*(4000000/4000.0))); if (PORTBbits.RB5 == 0) {while(PORTBbits.RB5 == 0); *key_o = '3'
      +                          ; *val_o = 0x03;}}
  5392  05E6  1A8D               	btfsc	13,5	;volatile
  5393  05E7  2DE9               	goto	u811
  5394  05E8  2DEA               	goto	u810
  5395  05E9                     u811:
  5396  05E9  2E09               	goto	l1854
  5397  05EA                     u810:
  5398  05EA                     l1844:
  5399  05EA  3041               	movlw	65
  5400  05EB  00F1               	movwf	??_keypad_scanner
  5401  05EC  30EE               	movlw	238
  5402  05ED                     u1487:
  5403  05ED  0B89               	decfsz	9,f
  5404  05EE  2DED               	goto	u1487
  5405  05EF  0BF1               	decfsz	??_keypad_scanner,f
  5406  05F0  2DED               	goto	u1487
  5407  05F1  3200               	nop2
  5408  05F2                     l1846:
  5409  05F2  0020               	movlb	0	; select bank0
  5410  05F3  1A8D               	btfsc	13,5	;volatile
  5411  05F4  2DF6               	goto	u821
  5412  05F5  2DF7               	goto	u820
  5413  05F6                     u821:
  5414  05F6  2E09               	goto	l1854
  5415  05F7                     u820:
  5416  05F7                     l213:
  5417  05F7  1E8D               	btfss	13,5	;volatile
  5418  05F8  2DFA               	goto	u831
  5419  05F9  2DFB               	goto	u830
  5420  05FA                     u831:
  5421  05FA  2DF7               	goto	l213
  5422  05FB                     u830:
  5423  05FB                     l1850:
  5424  05FB  3033               	movlw	51
  5425  05FC  00F1               	movwf	??_keypad_scanner
  5426  05FD  0872               	movf	keypad_scanner@key_o,w
  5427  05FE  0086               	movwf	6
  5428  05FF  0187               	clrf	7
  5429  0600  0871               	movf	??_keypad_scanner,w
  5430  0601  0081               	movwf	1
  5431  0602                     l1852:
  5432  0602  0870               	movf	keypad_scanner@val_o,w
  5433  0603  0086               	movwf	6
  5434  0604  0187               	clrf	7
  5435  0605  3003               	movlw	3
  5436  0606  3FC0               	movwi [0]fsr1
  5437  0607  3000               	movlw	0
  5438  0608  3FC1               	movwi [1]fsr1
  5439  0609                     l1854:
  5440                           
  5441                           ;mcc_generated_files/keypad.c: 35:     if (PORTBbits.RB6 == 0) {_delay((unsigned long)((
      +                          50)*(4000000/4000.0))); if (PORTBbits.RB6 == 0) {while(PORTBbits.RB6 == 0); *key_o = 'A'
      +                          ; *val_o = 0x0A;}}
  5442  0609  1B0D               	btfsc	13,6	;volatile
  5443  060A  2E0C               	goto	u841
  5444  060B  2E0D               	goto	u840
  5445  060C                     u841:
  5446  060C  2E2C               	goto	l1866
  5447  060D                     u840:
  5448  060D                     l1856:
  5449  060D  3041               	movlw	65
  5450  060E  00F1               	movwf	??_keypad_scanner
  5451  060F  30EE               	movlw	238
  5452  0610                     u1497:
  5453  0610  0B89               	decfsz	9,f
  5454  0611  2E10               	goto	u1497
  5455  0612  0BF1               	decfsz	??_keypad_scanner,f
  5456  0613  2E10               	goto	u1497
  5457  0614  3200               	nop2
  5458  0615                     l1858:
  5459  0615  0020               	movlb	0	; select bank0
  5460  0616  1B0D               	btfsc	13,6	;volatile
  5461  0617  2E19               	goto	u851
  5462  0618  2E1A               	goto	u850
  5463  0619                     u851:
  5464  0619  2E2C               	goto	l1866
  5465  061A                     u850:
  5466  061A                     l218:
  5467  061A  1F0D               	btfss	13,6	;volatile
  5468  061B  2E1D               	goto	u861
  5469  061C  2E1E               	goto	u860
  5470  061D                     u861:
  5471  061D  2E1A               	goto	l218
  5472  061E                     u860:
  5473  061E                     l1862:
  5474  061E  3041               	movlw	65
  5475  061F  00F1               	movwf	??_keypad_scanner
  5476  0620  0872               	movf	keypad_scanner@key_o,w
  5477  0621  0086               	movwf	6
  5478  0622  0187               	clrf	7
  5479  0623  0871               	movf	??_keypad_scanner,w
  5480  0624  0081               	movwf	1
  5481  0625                     l1864:
  5482  0625  0870               	movf	keypad_scanner@val_o,w
  5483  0626  0086               	movwf	6
  5484  0627  0187               	clrf	7
  5485  0628  300A               	movlw	10
  5486  0629  3FC0               	movwi [0]fsr1
  5487  062A  3000               	movlw	0
  5488  062B  3FC1               	movwi [1]fsr1
  5489  062C                     l1866:
  5490                           
  5491                           ;mcc_generated_files/keypad.c: 37:     LATAbits.LATA1 = 1; LATAbits.LATA2 = 0; LATCbits.
      +                          LATC0 = 1; LATCbits.LATC1 = 1;
  5492  062C  0022               	movlb	2	; select bank2
  5493  062D  148C               	bsf	12,1	;volatile
  5494  062E                     l1868:
  5495  062E  110C               	bcf	12,2	;volatile
  5496  062F                     l1870:
  5497  062F  140E               	bsf	14,0	;volatile
  5498  0630                     l1872:
  5499  0630  148E               	bsf	14,1	;volatile
  5500  0631                     l1874:
  5501                           
  5502                           ;mcc_generated_files/keypad.c: 39:     if (PORTCbits.RC2 == 0) {_delay((unsigned long)((
      +                          50)*(4000000/4000.0))); if (PORTCbits.RC2 == 0) {while(PORTCbits.RC2 == 0); *key_o = '4'
      +                          ; *val_o = 0x04;}}
  5503  0631  0020               	movlb	0	; select bank0
  5504  0632  190E               	btfsc	14,2	;volatile
  5505  0633  2E35               	goto	u871
  5506  0634  2E36               	goto	u870
  5507  0635                     u871:
  5508  0635  2E55               	goto	l1886
  5509  0636                     u870:
  5510  0636                     l1876:
  5511  0636  3041               	movlw	65
  5512  0637  00F1               	movwf	??_keypad_scanner
  5513  0638  30EE               	movlw	238
  5514  0639                     u1507:
  5515  0639  0B89               	decfsz	9,f
  5516  063A  2E39               	goto	u1507
  5517  063B  0BF1               	decfsz	??_keypad_scanner,f
  5518  063C  2E39               	goto	u1507
  5519  063D  3200               	nop2
  5520  063E                     l1878:
  5521  063E  0020               	movlb	0	; select bank0
  5522  063F  190E               	btfsc	14,2	;volatile
  5523  0640  2E42               	goto	u881
  5524  0641  2E43               	goto	u880
  5525  0642                     u881:
  5526  0642  2E55               	goto	l1886
  5527  0643                     u880:
  5528  0643                     l223:
  5529  0643  1D0E               	btfss	14,2	;volatile
  5530  0644  2E46               	goto	u891
  5531  0645  2E47               	goto	u890
  5532  0646                     u891:
  5533  0646  2E43               	goto	l223
  5534  0647                     u890:
  5535  0647                     l1882:
  5536  0647  3034               	movlw	52
  5537  0648  00F1               	movwf	??_keypad_scanner
  5538  0649  0872               	movf	keypad_scanner@key_o,w
  5539  064A  0086               	movwf	6
  5540  064B  0187               	clrf	7
  5541  064C  0871               	movf	??_keypad_scanner,w
  5542  064D  0081               	movwf	1
  5543  064E                     l1884:
  5544  064E  0870               	movf	keypad_scanner@val_o,w
  5545  064F  0086               	movwf	6
  5546  0650  0187               	clrf	7
  5547  0651  3004               	movlw	4
  5548  0652  3FC0               	movwi [0]fsr1
  5549  0653  3000               	movlw	0
  5550  0654  3FC1               	movwi [1]fsr1
  5551  0655                     l1886:
  5552                           
  5553                           ;mcc_generated_files/keypad.c: 40:     if (PORTBbits.RB4 == 0) {_delay((unsigned long)((
      +                          50)*(4000000/4000.0))); if (PORTBbits.RB4 == 0) {while(PORTBbits.RB4 == 0); *key_o = '5'
      +                          ; *val_o = 0x05;}}
  5554  0655  1A0D               	btfsc	13,4	;volatile
  5555  0656  2E58               	goto	u901
  5556  0657  2E59               	goto	u900
  5557  0658                     u901:
  5558  0658  2E78               	goto	l1898
  5559  0659                     u900:
  5560  0659                     l1888:
  5561  0659  3041               	movlw	65
  5562  065A  00F1               	movwf	??_keypad_scanner
  5563  065B  30EE               	movlw	238
  5564  065C                     u1517:
  5565  065C  0B89               	decfsz	9,f
  5566  065D  2E5C               	goto	u1517
  5567  065E  0BF1               	decfsz	??_keypad_scanner,f
  5568  065F  2E5C               	goto	u1517
  5569  0660  3200               	nop2
  5570  0661                     l1890:
  5571  0661  0020               	movlb	0	; select bank0
  5572  0662  1A0D               	btfsc	13,4	;volatile
  5573  0663  2E65               	goto	u911
  5574  0664  2E66               	goto	u910
  5575  0665                     u911:
  5576  0665  2E78               	goto	l1898
  5577  0666                     u910:
  5578  0666                     l228:
  5579  0666  1E0D               	btfss	13,4	;volatile
  5580  0667  2E69               	goto	u921
  5581  0668  2E6A               	goto	u920
  5582  0669                     u921:
  5583  0669  2E66               	goto	l228
  5584  066A                     u920:
  5585  066A                     l1894:
  5586  066A  3035               	movlw	53
  5587  066B  00F1               	movwf	??_keypad_scanner
  5588  066C  0872               	movf	keypad_scanner@key_o,w
  5589  066D  0086               	movwf	6
  5590  066E  0187               	clrf	7
  5591  066F  0871               	movf	??_keypad_scanner,w
  5592  0670  0081               	movwf	1
  5593  0671                     l1896:
  5594  0671  0870               	movf	keypad_scanner@val_o,w
  5595  0672  0086               	movwf	6
  5596  0673  0187               	clrf	7
  5597  0674  3005               	movlw	5
  5598  0675  3FC0               	movwi [0]fsr1
  5599  0676  3000               	movlw	0
  5600  0677  3FC1               	movwi [1]fsr1
  5601  0678                     l1898:
  5602                           
  5603                           ;mcc_generated_files/keypad.c: 41:     if (PORTBbits.RB5 == 0) {_delay((unsigned long)((
      +                          50)*(4000000/4000.0))); if (PORTBbits.RB5 == 0) {while(PORTBbits.RB5 == 0); *key_o = '6'
      +                          ; *val_o = 0x06;}}
  5604  0678  1A8D               	btfsc	13,5	;volatile
  5605  0679  2E7B               	goto	u931
  5606  067A  2E7C               	goto	u930
  5607  067B                     u931:
  5608  067B  2E9B               	goto	l1910
  5609  067C                     u930:
  5610  067C                     l1900:
  5611  067C  3041               	movlw	65
  5612  067D  00F1               	movwf	??_keypad_scanner
  5613  067E  30EE               	movlw	238
  5614  067F                     u1527:
  5615  067F  0B89               	decfsz	9,f
  5616  0680  2E7F               	goto	u1527
  5617  0681  0BF1               	decfsz	??_keypad_scanner,f
  5618  0682  2E7F               	goto	u1527
  5619  0683  3200               	nop2
  5620  0684                     l1902:
  5621  0684  0020               	movlb	0	; select bank0
  5622  0685  1A8D               	btfsc	13,5	;volatile
  5623  0686  2E88               	goto	u941
  5624  0687  2E89               	goto	u940
  5625  0688                     u941:
  5626  0688  2E9B               	goto	l1910
  5627  0689                     u940:
  5628  0689                     l233:
  5629  0689  1E8D               	btfss	13,5	;volatile
  5630  068A  2E8C               	goto	u951
  5631  068B  2E8D               	goto	u950
  5632  068C                     u951:
  5633  068C  2E89               	goto	l233
  5634  068D                     u950:
  5635  068D                     l1906:
  5636  068D  3036               	movlw	54
  5637  068E  00F1               	movwf	??_keypad_scanner
  5638  068F  0872               	movf	keypad_scanner@key_o,w
  5639  0690  0086               	movwf	6
  5640  0691  0187               	clrf	7
  5641  0692  0871               	movf	??_keypad_scanner,w
  5642  0693  0081               	movwf	1
  5643  0694                     l1908:
  5644  0694  0870               	movf	keypad_scanner@val_o,w
  5645  0695  0086               	movwf	6
  5646  0696  0187               	clrf	7
  5647  0697  3006               	movlw	6
  5648  0698  3FC0               	movwi [0]fsr1
  5649  0699  3000               	movlw	0
  5650  069A  3FC1               	movwi [1]fsr1
  5651  069B                     l1910:
  5652                           
  5653                           ;mcc_generated_files/keypad.c: 42:     if (PORTBbits.RB6 == 0) {_delay((unsigned long)((
      +                          50)*(4000000/4000.0))); if (PORTBbits.RB6 == 0) {while(PORTBbits.RB6 == 0); *key_o = 'B'
      +                          ; *val_o = 0x0B;}}
  5654  069B  1B0D               	btfsc	13,6	;volatile
  5655  069C  2E9E               	goto	u961
  5656  069D  2E9F               	goto	u960
  5657  069E                     u961:
  5658  069E  2EBE               	goto	l1922
  5659  069F                     u960:
  5660  069F                     l1912:
  5661  069F  3041               	movlw	65
  5662  06A0  00F1               	movwf	??_keypad_scanner
  5663  06A1  30EE               	movlw	238
  5664  06A2                     u1537:
  5665  06A2  0B89               	decfsz	9,f
  5666  06A3  2EA2               	goto	u1537
  5667  06A4  0BF1               	decfsz	??_keypad_scanner,f
  5668  06A5  2EA2               	goto	u1537
  5669  06A6  3200               	nop2
  5670  06A7                     l1914:
  5671  06A7  0020               	movlb	0	; select bank0
  5672  06A8  1B0D               	btfsc	13,6	;volatile
  5673  06A9  2EAB               	goto	u971
  5674  06AA  2EAC               	goto	u970
  5675  06AB                     u971:
  5676  06AB  2EBE               	goto	l1922
  5677  06AC                     u970:
  5678  06AC                     l238:
  5679  06AC  1F0D               	btfss	13,6	;volatile
  5680  06AD  2EAF               	goto	u981
  5681  06AE  2EB0               	goto	u980
  5682  06AF                     u981:
  5683  06AF  2EAC               	goto	l238
  5684  06B0                     u980:
  5685  06B0                     l1918:
  5686  06B0  3042               	movlw	66
  5687  06B1  00F1               	movwf	??_keypad_scanner
  5688  06B2  0872               	movf	keypad_scanner@key_o,w
  5689  06B3  0086               	movwf	6
  5690  06B4  0187               	clrf	7
  5691  06B5  0871               	movf	??_keypad_scanner,w
  5692  06B6  0081               	movwf	1
  5693  06B7                     l1920:
  5694  06B7  0870               	movf	keypad_scanner@val_o,w
  5695  06B8  0086               	movwf	6
  5696  06B9  0187               	clrf	7
  5697  06BA  300B               	movlw	11
  5698  06BB  3FC0               	movwi [0]fsr1
  5699  06BC  3000               	movlw	0
  5700  06BD  3FC1               	movwi [1]fsr1
  5701  06BE                     l1922:
  5702                           
  5703                           ;mcc_generated_files/keypad.c: 44:     LATAbits.LATA1 = 1; LATAbits.LATA2 = 1; LATCbits.
      +                          LATC0 = 0; LATCbits.LATC1 = 1;
  5704  06BE  0022               	movlb	2	; select bank2
  5705  06BF  148C               	bsf	12,1	;volatile
  5706  06C0                     l1924:
  5707  06C0  150C               	bsf	12,2	;volatile
  5708  06C1                     l1926:
  5709  06C1  100E               	bcf	14,0	;volatile
  5710  06C2                     l1928:
  5711  06C2  148E               	bsf	14,1	;volatile
  5712  06C3                     l1930:
  5713                           
  5714                           ;mcc_generated_files/keypad.c: 46:     if (PORTCbits.RC2 == 0) {_delay((unsigned long)((
      +                          50)*(4000000/4000.0))); if (PORTCbits.RC2 == 0) {while(PORTCbits.RC2 == 0); *key_o = '7'
      +                          ; *val_o = 0x07;}}
  5715  06C3  0020               	movlb	0	; select bank0
  5716  06C4  190E               	btfsc	14,2	;volatile
  5717  06C5  2EC7               	goto	u991
  5718  06C6  2EC8               	goto	u990
  5719  06C7                     u991:
  5720  06C7  2EE7               	goto	l1942
  5721  06C8                     u990:
  5722  06C8                     l1932:
  5723  06C8  3041               	movlw	65
  5724  06C9  00F1               	movwf	??_keypad_scanner
  5725  06CA  30EE               	movlw	238
  5726  06CB                     u1547:
  5727  06CB  0B89               	decfsz	9,f
  5728  06CC  2ECB               	goto	u1547
  5729  06CD  0BF1               	decfsz	??_keypad_scanner,f
  5730  06CE  2ECB               	goto	u1547
  5731  06CF  3200               	nop2
  5732  06D0                     l1934:
  5733  06D0  0020               	movlb	0	; select bank0
  5734  06D1  190E               	btfsc	14,2	;volatile
  5735  06D2  2ED4               	goto	u1001
  5736  06D3  2ED5               	goto	u1000
  5737  06D4                     u1001:
  5738  06D4  2EE7               	goto	l1942
  5739  06D5                     u1000:
  5740  06D5                     l243:
  5741  06D5  1D0E               	btfss	14,2	;volatile
  5742  06D6  2ED8               	goto	u1011
  5743  06D7  2ED9               	goto	u1010
  5744  06D8                     u1011:
  5745  06D8  2ED5               	goto	l243
  5746  06D9                     u1010:
  5747  06D9                     l1938:
  5748  06D9  3037               	movlw	55
  5749  06DA  00F1               	movwf	??_keypad_scanner
  5750  06DB  0872               	movf	keypad_scanner@key_o,w
  5751  06DC  0086               	movwf	6
  5752  06DD  0187               	clrf	7
  5753  06DE  0871               	movf	??_keypad_scanner,w
  5754  06DF  0081               	movwf	1
  5755  06E0                     l1940:
  5756  06E0  0870               	movf	keypad_scanner@val_o,w
  5757  06E1  0086               	movwf	6
  5758  06E2  0187               	clrf	7
  5759  06E3  3007               	movlw	7
  5760  06E4  3FC0               	movwi [0]fsr1
  5761  06E5  3000               	movlw	0
  5762  06E6  3FC1               	movwi [1]fsr1
  5763  06E7                     l1942:
  5764                           
  5765                           ;mcc_generated_files/keypad.c: 47:     if (PORTBbits.RB4 == 0) {_delay((unsigned long)((
      +                          50)*(4000000/4000.0))); if (PORTBbits.RB4 == 0) {while(PORTBbits.RB4 == 0); *key_o = '8'
      +                          ; *val_o = 0x08;}}
  5766  06E7  1A0D               	btfsc	13,4	;volatile
  5767  06E8  2EEA               	goto	u1021
  5768  06E9  2EEB               	goto	u1020
  5769  06EA                     u1021:
  5770  06EA  2F0A               	goto	l1954
  5771  06EB                     u1020:
  5772  06EB                     l1944:
  5773  06EB  3041               	movlw	65
  5774  06EC  00F1               	movwf	??_keypad_scanner
  5775  06ED  30EE               	movlw	238
  5776  06EE                     u1557:
  5777  06EE  0B89               	decfsz	9,f
  5778  06EF  2EEE               	goto	u1557
  5779  06F0  0BF1               	decfsz	??_keypad_scanner,f
  5780  06F1  2EEE               	goto	u1557
  5781  06F2  3200               	nop2
  5782  06F3                     l1946:
  5783  06F3  0020               	movlb	0	; select bank0
  5784  06F4  1A0D               	btfsc	13,4	;volatile
  5785  06F5  2EF7               	goto	u1031
  5786  06F6  2EF8               	goto	u1030
  5787  06F7                     u1031:
  5788  06F7  2F0A               	goto	l1954
  5789  06F8                     u1030:
  5790  06F8                     l248:
  5791  06F8  1E0D               	btfss	13,4	;volatile
  5792  06F9  2EFB               	goto	u1041
  5793  06FA  2EFC               	goto	u1040
  5794  06FB                     u1041:
  5795  06FB  2EF8               	goto	l248
  5796  06FC                     u1040:
  5797  06FC                     l1950:
  5798  06FC  3038               	movlw	56
  5799  06FD  00F1               	movwf	??_keypad_scanner
  5800  06FE  0872               	movf	keypad_scanner@key_o,w
  5801  06FF  0086               	movwf	6
  5802  0700  0187               	clrf	7
  5803  0701  0871               	movf	??_keypad_scanner,w
  5804  0702  0081               	movwf	1
  5805  0703                     l1952:
  5806  0703  0870               	movf	keypad_scanner@val_o,w
  5807  0704  0086               	movwf	6
  5808  0705  0187               	clrf	7
  5809  0706  3008               	movlw	8
  5810  0707  3FC0               	movwi [0]fsr1
  5811  0708  3000               	movlw	0
  5812  0709  3FC1               	movwi [1]fsr1
  5813  070A                     l1954:
  5814                           
  5815                           ;mcc_generated_files/keypad.c: 48:     if (PORTBbits.RB5 == 0) {_delay((unsigned long)((
      +                          50)*(4000000/4000.0))); if (PORTBbits.RB5 == 0) {while(PORTBbits.RB5 == 0); *key_o = '9'
      +                          ; *val_o = 0x09;}}
  5816  070A  1A8D               	btfsc	13,5	;volatile
  5817  070B  2F0D               	goto	u1051
  5818  070C  2F0E               	goto	u1050
  5819  070D                     u1051:
  5820  070D  2F2D               	goto	l1966
  5821  070E                     u1050:
  5822  070E                     l1956:
  5823  070E  3041               	movlw	65
  5824  070F  00F1               	movwf	??_keypad_scanner
  5825  0710  30EE               	movlw	238
  5826  0711                     u1567:
  5827  0711  0B89               	decfsz	9,f
  5828  0712  2F11               	goto	u1567
  5829  0713  0BF1               	decfsz	??_keypad_scanner,f
  5830  0714  2F11               	goto	u1567
  5831  0715  3200               	nop2
  5832  0716                     l1958:
  5833  0716  0020               	movlb	0	; select bank0
  5834  0717  1A8D               	btfsc	13,5	;volatile
  5835  0718  2F1A               	goto	u1061
  5836  0719  2F1B               	goto	u1060
  5837  071A                     u1061:
  5838  071A  2F2D               	goto	l1966
  5839  071B                     u1060:
  5840  071B                     l253:
  5841  071B  1E8D               	btfss	13,5	;volatile
  5842  071C  2F1E               	goto	u1071
  5843  071D  2F1F               	goto	u1070
  5844  071E                     u1071:
  5845  071E  2F1B               	goto	l253
  5846  071F                     u1070:
  5847  071F                     l1962:
  5848  071F  3039               	movlw	57
  5849  0720  00F1               	movwf	??_keypad_scanner
  5850  0721  0872               	movf	keypad_scanner@key_o,w
  5851  0722  0086               	movwf	6
  5852  0723  0187               	clrf	7
  5853  0724  0871               	movf	??_keypad_scanner,w
  5854  0725  0081               	movwf	1
  5855  0726                     l1964:
  5856  0726  0870               	movf	keypad_scanner@val_o,w
  5857  0727  0086               	movwf	6
  5858  0728  0187               	clrf	7
  5859  0729  3009               	movlw	9
  5860  072A  3FC0               	movwi [0]fsr1
  5861  072B  3000               	movlw	0
  5862  072C  3FC1               	movwi [1]fsr1
  5863  072D                     l1966:
  5864                           
  5865                           ;mcc_generated_files/keypad.c: 49:     if (PORTBbits.RB6 == 0) {_delay((unsigned long)((
      +                          50)*(4000000/4000.0))); if (PORTBbits.RB6 == 0) {while(PORTBbits.RB6 == 0); *key_o = 'C'
      +                          ; *val_o = 0x0C;}}
  5866  072D  1B0D               	btfsc	13,6	;volatile
  5867  072E  2F30               	goto	u1081
  5868  072F  2F31               	goto	u1080
  5869  0730                     u1081:
  5870  0730  2F50               	goto	l1978
  5871  0731                     u1080:
  5872  0731                     l1968:
  5873  0731  3041               	movlw	65
  5874  0732  00F1               	movwf	??_keypad_scanner
  5875  0733  30EE               	movlw	238
  5876  0734                     u1577:
  5877  0734  0B89               	decfsz	9,f
  5878  0735  2F34               	goto	u1577
  5879  0736  0BF1               	decfsz	??_keypad_scanner,f
  5880  0737  2F34               	goto	u1577
  5881  0738  3200               	nop2
  5882  0739                     l1970:
  5883  0739  0020               	movlb	0	; select bank0
  5884  073A  1B0D               	btfsc	13,6	;volatile
  5885  073B  2F3D               	goto	u1091
  5886  073C  2F3E               	goto	u1090
  5887  073D                     u1091:
  5888  073D  2F50               	goto	l1978
  5889  073E                     u1090:
  5890  073E                     l258:
  5891  073E  1F0D               	btfss	13,6	;volatile
  5892  073F  2F41               	goto	u1101
  5893  0740  2F42               	goto	u1100
  5894  0741                     u1101:
  5895  0741  2F3E               	goto	l258
  5896  0742                     u1100:
  5897  0742                     l1974:
  5898  0742  3043               	movlw	67
  5899  0743  00F1               	movwf	??_keypad_scanner
  5900  0744  0872               	movf	keypad_scanner@key_o,w
  5901  0745  0086               	movwf	6
  5902  0746  0187               	clrf	7
  5903  0747  0871               	movf	??_keypad_scanner,w
  5904  0748  0081               	movwf	1
  5905  0749                     l1976:
  5906  0749  0870               	movf	keypad_scanner@val_o,w
  5907  074A  0086               	movwf	6
  5908  074B  0187               	clrf	7
  5909  074C  300C               	movlw	12
  5910  074D  3FC0               	movwi [0]fsr1
  5911  074E  3000               	movlw	0
  5912  074F  3FC1               	movwi [1]fsr1
  5913  0750                     l1978:
  5914                           
  5915                           ;mcc_generated_files/keypad.c: 51:     LATAbits.LATA1 = 1; LATAbits.LATA2 = 1; LATCbits.
      +                          LATC0 = 1; LATCbits.LATC1 = 0;
  5916  0750  0022               	movlb	2	; select bank2
  5917  0751  148C               	bsf	12,1	;volatile
  5918  0752                     l1980:
  5919  0752  150C               	bsf	12,2	;volatile
  5920  0753                     l1982:
  5921  0753  140E               	bsf	14,0	;volatile
  5922  0754                     l1984:
  5923  0754  108E               	bcf	14,1	;volatile
  5924  0755                     l1986:
  5925                           
  5926                           ;mcc_generated_files/keypad.c: 53:     if (PORTCbits.RC2 == 0) {_delay((unsigned long)((
      +                          50)*(4000000/4000.0))); if (PORTCbits.RC2 == 0) {while(PORTCbits.RC2 == 0); *key_o = '*'
      +                          ; *val_o = 0x0E;}}
  5927  0755  0020               	movlb	0	; select bank0
  5928  0756  190E               	btfsc	14,2	;volatile
  5929  0757  2F59               	goto	u1111
  5930  0758  2F5A               	goto	u1110
  5931  0759                     u1111:
  5932  0759  2F79               	goto	l1998
  5933  075A                     u1110:
  5934  075A                     l1988:
  5935  075A  3041               	movlw	65
  5936  075B  00F1               	movwf	??_keypad_scanner
  5937  075C  30EE               	movlw	238
  5938  075D                     u1587:
  5939  075D  0B89               	decfsz	9,f
  5940  075E  2F5D               	goto	u1587
  5941  075F  0BF1               	decfsz	??_keypad_scanner,f
  5942  0760  2F5D               	goto	u1587
  5943  0761  3200               	nop2
  5944  0762                     l1990:
  5945  0762  0020               	movlb	0	; select bank0
  5946  0763  190E               	btfsc	14,2	;volatile
  5947  0764  2F66               	goto	u1121
  5948  0765  2F67               	goto	u1120
  5949  0766                     u1121:
  5950  0766  2F79               	goto	l1998
  5951  0767                     u1120:
  5952  0767                     l263:
  5953  0767  1D0E               	btfss	14,2	;volatile
  5954  0768  2F6A               	goto	u1131
  5955  0769  2F6B               	goto	u1130
  5956  076A                     u1131:
  5957  076A  2F67               	goto	l263
  5958  076B                     u1130:
  5959  076B                     l1994:
  5960  076B  302A               	movlw	42
  5961  076C  00F1               	movwf	??_keypad_scanner
  5962  076D  0872               	movf	keypad_scanner@key_o,w
  5963  076E  0086               	movwf	6
  5964  076F  0187               	clrf	7
  5965  0770  0871               	movf	??_keypad_scanner,w
  5966  0771  0081               	movwf	1
  5967  0772                     l1996:
  5968  0772  0870               	movf	keypad_scanner@val_o,w
  5969  0773  0086               	movwf	6
  5970  0774  0187               	clrf	7
  5971  0775  300E               	movlw	14
  5972  0776  3FC0               	movwi [0]fsr1
  5973  0777  3000               	movlw	0
  5974  0778  3FC1               	movwi [1]fsr1
  5975  0779                     l1998:
  5976                           
  5977                           ;mcc_generated_files/keypad.c: 54:     if (PORTBbits.RB4 == 0) {_delay((unsigned long)((
      +                          50)*(4000000/4000.0))); if (PORTBbits.RB4 == 0) {while(PORTBbits.RB4 == 0); *key_o = '0'
      +                          ; *val_o = 0x00;}}
  5978  0779  1A0D               	btfsc	13,4	;volatile
  5979  077A  2F7C               	goto	u1141
  5980  077B  2F7D               	goto	u1140
  5981  077C                     u1141:
  5982  077C  2F9B               	goto	l2008
  5983  077D                     u1140:
  5984  077D                     l2000:
  5985  077D  3041               	movlw	65
  5986  077E  00F1               	movwf	??_keypad_scanner
  5987  077F  30EE               	movlw	238
  5988  0780                     u1597:
  5989  0780  0B89               	decfsz	9,f
  5990  0781  2F80               	goto	u1597
  5991  0782  0BF1               	decfsz	??_keypad_scanner,f
  5992  0783  2F80               	goto	u1597
  5993  0784  3200               	nop2
  5994  0785                     l2002:
  5995  0785  0020               	movlb	0	; select bank0
  5996  0786  1A0D               	btfsc	13,4	;volatile
  5997  0787  2F89               	goto	u1151
  5998  0788  2F8A               	goto	u1150
  5999  0789                     u1151:
  6000  0789  2F9B               	goto	l2008
  6001  078A                     u1150:
  6002  078A                     l268:
  6003  078A  1E0D               	btfss	13,4	;volatile
  6004  078B  2F8D               	goto	u1161
  6005  078C  2F8E               	goto	u1160
  6006  078D                     u1161:
  6007  078D  2F8A               	goto	l268
  6008  078E                     u1160:
  6009  078E                     l2006:
  6010  078E  3030               	movlw	48
  6011  078F  00F1               	movwf	??_keypad_scanner
  6012  0790  0872               	movf	keypad_scanner@key_o,w
  6013  0791  0086               	movwf	6
  6014  0792  0187               	clrf	7
  6015  0793  0871               	movf	??_keypad_scanner,w
  6016  0794  0081               	movwf	1
  6017  0795  0870               	movf	keypad_scanner@val_o,w
  6018  0796  0086               	movwf	6
  6019  0797  0187               	clrf	7
  6020  0798  3000               	movlw	0
  6021  0799  3FC0               	movwi [0]fsr1
  6022  079A  3FC1               	movwi [1]fsr1
  6023  079B                     l2008:
  6024                           
  6025                           ;mcc_generated_files/keypad.c: 55:     if (PORTBbits.RB5 == 0) {_delay((unsigned long)((
      +                          50)*(4000000/4000.0))); if (PORTBbits.RB5 == 0) {while(PORTBbits.RB5 == 0); *key_o = '#'
      +                          ; *val_o = 0x0F;}}
  6026  079B  1A8D               	btfsc	13,5	;volatile
  6027  079C  2F9E               	goto	u1171
  6028  079D  2F9F               	goto	u1170
  6029  079E                     u1171:
  6030  079E  2FBE               	goto	l2020
  6031  079F                     u1170:
  6032  079F                     l2010:
  6033  079F  3041               	movlw	65
  6034  07A0  00F1               	movwf	??_keypad_scanner
  6035  07A1  30EE               	movlw	238
  6036  07A2                     u1607:
  6037  07A2  0B89               	decfsz	9,f
  6038  07A3  2FA2               	goto	u1607
  6039  07A4  0BF1               	decfsz	??_keypad_scanner,f
  6040  07A5  2FA2               	goto	u1607
  6041  07A6  3200               	nop2
  6042  07A7                     l2012:
  6043  07A7  0020               	movlb	0	; select bank0
  6044  07A8  1A8D               	btfsc	13,5	;volatile
  6045  07A9  2FAB               	goto	u1181
  6046  07AA  2FAC               	goto	u1180
  6047  07AB                     u1181:
  6048  07AB  2FBE               	goto	l2020
  6049  07AC                     u1180:
  6050  07AC                     l273:
  6051  07AC  1E8D               	btfss	13,5	;volatile
  6052  07AD  2FAF               	goto	u1191
  6053  07AE  2FB0               	goto	u1190
  6054  07AF                     u1191:
  6055  07AF  2FAC               	goto	l273
  6056  07B0                     u1190:
  6057  07B0                     l2016:
  6058  07B0  3023               	movlw	35
  6059  07B1  00F1               	movwf	??_keypad_scanner
  6060  07B2  0872               	movf	keypad_scanner@key_o,w
  6061  07B3  0086               	movwf	6
  6062  07B4  0187               	clrf	7
  6063  07B5  0871               	movf	??_keypad_scanner,w
  6064  07B6  0081               	movwf	1
  6065  07B7                     l2018:
  6066  07B7  0870               	movf	keypad_scanner@val_o,w
  6067  07B8  0086               	movwf	6
  6068  07B9  0187               	clrf	7
  6069  07BA  300F               	movlw	15
  6070  07BB  3FC0               	movwi [0]fsr1
  6071  07BC  3000               	movlw	0
  6072  07BD  3FC1               	movwi [1]fsr1
  6073  07BE                     l2020:
  6074                           
  6075                           ;mcc_generated_files/keypad.c: 56:     if (PORTBbits.RB6 == 0) {_delay((unsigned long)((
      +                          50)*(4000000/4000.0))); if (PORTBbits.RB6 == 0) {while(PORTBbits.RB6 == 0); *key_o = 'D'
      +                          ; *val_o = 0x0D;}}
  6076  07BE  1B0D               	btfsc	13,6	;volatile
  6077  07BF  2FC1               	goto	u1201
  6078  07C0  2FC2               	goto	u1200
  6079  07C1                     u1201:
  6080  07C1  2FE1               	goto	l281
  6081  07C2                     u1200:
  6082  07C2                     l2022:
  6083  07C2  3041               	movlw	65
  6084  07C3  00F1               	movwf	??_keypad_scanner
  6085  07C4  30EE               	movlw	238
  6086  07C5                     u1617:
  6087  07C5  0B89               	decfsz	9,f
  6088  07C6  2FC5               	goto	u1617
  6089  07C7  0BF1               	decfsz	??_keypad_scanner,f
  6090  07C8  2FC5               	goto	u1617
  6091  07C9  3200               	nop2
  6092  07CA                     l2024:
  6093  07CA  0020               	movlb	0	; select bank0
  6094  07CB  1B0D               	btfsc	13,6	;volatile
  6095  07CC  2FCE               	goto	u1211
  6096  07CD  2FCF               	goto	u1210
  6097  07CE                     u1211:
  6098  07CE  2FE1               	goto	l281
  6099  07CF                     u1210:
  6100  07CF                     l278:
  6101  07CF  1F0D               	btfss	13,6	;volatile
  6102  07D0  2FD2               	goto	u1221
  6103  07D1  2FD3               	goto	u1220
  6104  07D2                     u1221:
  6105  07D2  2FCF               	goto	l278
  6106  07D3                     u1220:
  6107  07D3                     l2028:
  6108  07D3  3044               	movlw	68
  6109  07D4  00F1               	movwf	??_keypad_scanner
  6110  07D5  0872               	movf	keypad_scanner@key_o,w
  6111  07D6  0086               	movwf	6
  6112  07D7  0187               	clrf	7
  6113  07D8  0871               	movf	??_keypad_scanner,w
  6114  07D9  0081               	movwf	1
  6115  07DA                     l2030:
  6116  07DA  0870               	movf	keypad_scanner@val_o,w
  6117  07DB  0086               	movwf	6
  6118  07DC  0187               	clrf	7
  6119  07DD  300D               	movlw	13
  6120  07DE  3FC0               	movwi [0]fsr1
  6121  07DF  3000               	movlw	0
  6122  07E0  3FC1               	movwi [1]fsr1
  6123  07E1                     l281:
  6124  07E1  0008               	return
  6125  07E2                     __end_of_keypad_scanner:
  6126                           
  6127                           	psect	text3
  6128  01B0                     __ptext3:	
  6129 ;; *************** function _SYSTEM_Initialize *****************
  6130 ;; Defined at:
  6131 ;;		line 50 in file "mcc_generated_files/mcc.c"
  6132 ;; Parameters:    Size  Location     Type
  6133 ;;		None
  6134 ;; Auto vars:     Size  Location     Type
  6135 ;;		None
  6136 ;; Return value:  Size  Location     Type
  6137 ;;                  1    wreg      void 
  6138 ;; Registers used:
  6139 ;;		wreg, status,2, status,0, pclath, cstack
  6140 ;; Tracked objects:
  6141 ;;		On entry : 0/0
  6142 ;;		On exit  : 0/0
  6143 ;;		Unchanged: 0/0
  6144 ;; Data sizes:     COMMON   BANK0   BANK1   BANK2   BANK3   BANK4   BANK5   BANK6   BANK7   BANK8   BANK9  BANK10  BANK1
      +1  BANK12
  6145 ;;      Params:         0       0       0       0       0       0       0       0       0       0       0       0       
      +0       0
  6146 ;;      Locals:         0       0       0       0       0       0       0       0       0       0       0       0       
      +0       0
  6147 ;;      Temps:          0       0       0       0       0       0       0       0       0       0       0       0       
      +0       0
  6148 ;;      Totals:         0       0       0       0       0       0       0       0       0       0       0       0       
      +0       0
  6149 ;;Total ram usage:        0 bytes
  6150 ;; Hardware stack levels used: 1
  6151 ;; Hardware stack levels required when called: 2
  6152 ;; This function calls:
  6153 ;;		_EUSART_Initialize
  6154 ;;		_I2C_Master_Init
  6155 ;;		_OSCILLATOR_Initialize
  6156 ;;		_PIN_MANAGER_Initialize
  6157 ;;		_TMR0_Initialize
  6158 ;; This function is called by:
  6159 ;;		_main
  6160 ;; This function uses a non-reentrant model
  6161 ;;
  6162                           
  6163                           
  6164                           ;psect for function _SYSTEM_Initialize
  6165  01B0                     _SYSTEM_Initialize:
  6166  01B0                     l2032:	
  6167                           ;incstack = 0
  6168                           ; Regs used in _SYSTEM_Initialize: [wreg+status,2+status,0+pclath+cstack]
  6169                           
  6170                           
  6171                           ;mcc_generated_files/mcc.c: 52:     I2C_Master_Init();
  6172  01B0  3181  215D  3181   	fcall	_I2C_Master_Init
  6173                           
  6174                           ;mcc_generated_files/mcc.c: 53:     PIN_MANAGER_Initialize();
  6175  01B3  3182  22A7  3181   	fcall	_PIN_MANAGER_Initialize
  6176                           
  6177                           ;mcc_generated_files/mcc.c: 54:     OSCILLATOR_Initialize();
  6178  01B6  3181  2144  3181   	fcall	_OSCILLATOR_Initialize
  6179                           
  6180                           ;mcc_generated_files/mcc.c: 55:     TMR0_Initialize();
  6181  01B9  3181  2174  3181   	fcall	_TMR0_Initialize
  6182                           
  6183                           ;mcc_generated_files/mcc.c: 56:     EUSART_Initialize();
  6184  01BC  3182  2230  3181   	fcall	_EUSART_Initialize
  6185  01BF                     l81:
  6186  01BF  0008               	return
  6187  01C0                     __end_of_SYSTEM_Initialize:
  6188                           
  6189                           	psect	text4
  6190  0174                     __ptext4:	
  6191 ;; *************** function _TMR0_Initialize *****************
  6192 ;; Defined at:
  6193 ;;		line 63 in file "mcc_generated_files/tmr0.c"
  6194 ;; Parameters:    Size  Location     Type
  6195 ;;		None
  6196 ;; Auto vars:     Size  Location     Type
  6197 ;;		None
  6198 ;; Return value:  Size  Location     Type
  6199 ;;                  1    wreg      void 
  6200 ;; Registers used:
  6201 ;;		wreg, status,2
  6202 ;; Tracked objects:
  6203 ;;		On entry : 0/0
  6204 ;;		On exit  : 0/0
  6205 ;;		Unchanged: 0/0
  6206 ;; Data sizes:     COMMON   BANK0   BANK1   BANK2   BANK3   BANK4   BANK5   BANK6   BANK7   BANK8   BANK9  BANK10  BANK1
      +1  BANK12
  6207 ;;      Params:         0       0       0       0       0       0       0       0       0       0       0       0       
      +0       0
  6208 ;;      Locals:         0       0       0       0       0       0       0       0       0       0       0       0       
      +0       0
  6209 ;;      Temps:          1       0       0       0       0       0       0       0       0       0       0       0       
      +0       0
  6210 ;;      Totals:         1       0       0       0       0       0       0       0       0       0       0       0       
      +0       0
  6211 ;;Total ram usage:        1 bytes
  6212 ;; Hardware stack levels used: 1
  6213 ;; This function calls:
  6214 ;;		Nothing
  6215 ;; This function is called by:
  6216 ;;		_SYSTEM_Initialize
  6217 ;; This function uses a non-reentrant model
  6218 ;;
  6219                           
  6220                           
  6221                           ;psect for function _TMR0_Initialize
  6222  0174                     _TMR0_Initialize:
  6223  0174                     l1776:	
  6224                           ;incstack = 0
  6225                           ; Regs used in _TMR0_Initialize: [wreg+status,2]
  6226                           
  6227                           
  6228                           ;mcc_generated_files/tmr0.c: 68:     OPTION_REG = (uint8_t)((OPTION_REG & 0xC0) | (0xD7 
      +                          & 0x3F));
  6229  0174  0021               	movlb	1	; select bank1
  6230  0175  0815               	movf	21,w	;volatile
  6231  0176  39C0               	andlw	192
  6232  0177  3817               	iorlw	23
  6233  0178  0095               	movwf	21	;volatile
  6234  0179                     l1778:
  6235                           
  6236                           ;mcc_generated_files/tmr0.c: 71:     TMR0 = 0xE0;
  6237  0179  30E0               	movlw	224
  6238  017A  0020               	movlb	0	; select bank0
  6239  017B  0095               	movwf	21	;volatile
  6240  017C                     l1780:
  6241                           
  6242                           ;mcc_generated_files/tmr0.c: 74:     timer0ReloadVal= 224;
  6243  017C  30E0               	movlw	224
  6244  017D  00F0               	movwf	??_TMR0_Initialize
  6245  017E  0870               	movf	??_TMR0_Initialize,w
  6246  017F  00B1               	movwf	_timer0ReloadVal	;volatile
  6247  0180                     l1782:
  6248                           
  6249                           ;mcc_generated_files/tmr0.c: 77:     INTCONbits.TMR0IF = 0;
  6250  0180  110B               	bcf	11,2	;volatile
  6251  0181                     l380:
  6252  0181  0008               	return
  6253  0182                     __end_of_TMR0_Initialize:
  6254                           
  6255                           	psect	text5
  6256  02A7                     __ptext5:	
  6257 ;; *************** function _PIN_MANAGER_Initialize *****************
  6258 ;; Defined at:
  6259 ;;		line 55 in file "mcc_generated_files/pin_manager.c"
  6260 ;; Parameters:    Size  Location     Type
  6261 ;;		None
  6262 ;; Auto vars:     Size  Location     Type
  6263 ;;		None
  6264 ;; Return value:  Size  Location     Type
  6265 ;;                  1    wreg      void 
  6266 ;; Registers used:
  6267 ;;		wreg, status,2
  6268 ;; Tracked objects:
  6269 ;;		On entry : 0/0
  6270 ;;		On exit  : 0/0
  6271 ;;		Unchanged: 0/0
  6272 ;; Data sizes:     COMMON   BANK0   BANK1   BANK2   BANK3   BANK4   BANK5   BANK6   BANK7   BANK8   BANK9  BANK10  BANK1
      +1  BANK12
  6273 ;;      Params:         0       0       0       0       0       0       0       0       0       0       0       0       
      +0       0
  6274 ;;      Locals:         0       0       0       0       0       0       0       0       0       0       0       0       
      +0       0
  6275 ;;      Temps:          0       0       0       0       0       0       0       0       0       0       0       0       
      +0       0
  6276 ;;      Totals:         0       0       0       0       0       0       0       0       0       0       0       0       
      +0       0
  6277 ;;Total ram usage:        0 bytes
  6278 ;; Hardware stack levels used: 1
  6279 ;; This function calls:
  6280 ;;		Nothing
  6281 ;; This function is called by:
  6282 ;;		_SYSTEM_Initialize
  6283 ;; This function uses a non-reentrant model
  6284 ;;
  6285                           
  6286                           
  6287                           ;psect for function _PIN_MANAGER_Initialize
  6288  02A7                     _PIN_MANAGER_Initialize:
  6289  02A7                     l1710:	
  6290                           ;incstack = 0
  6291                           ; Regs used in _PIN_MANAGER_Initialize: [wreg+status,2]
  6292                           
  6293                           
  6294                           ;mcc_generated_files/pin_manager.c: 60:     LATA = 0x00;
  6295  02A7  0022               	movlb	2	; select bank2
  6296  02A8  018C               	clrf	12	;volatile
  6297                           
  6298                           ;mcc_generated_files/pin_manager.c: 61:     LATB = 0x00;
  6299  02A9  018D               	clrf	13	;volatile
  6300                           
  6301                           ;mcc_generated_files/pin_manager.c: 62:     LATC = 0x00;
  6302  02AA  018E               	clrf	14	;volatile
  6303  02AB                     l1712:
  6304                           
  6305                           ;mcc_generated_files/pin_manager.c: 67:     TRISA = 0x31;
  6306  02AB  3031               	movlw	49
  6307  02AC  0021               	movlb	1	; select bank1
  6308  02AD  008C               	movwf	12	;volatile
  6309  02AE                     l1714:
  6310                           
  6311                           ;mcc_generated_files/pin_manager.c: 68:     TRISB = 0xF0;
  6312  02AE  30F0               	movlw	240
  6313  02AF  008D               	movwf	13	;volatile
  6314  02B0                     l1716:
  6315                           
  6316                           ;mcc_generated_files/pin_manager.c: 69:     TRISC = 0xBC;
  6317  02B0  30BC               	movlw	188
  6318  02B1  008E               	movwf	14	;volatile
  6319  02B2                     l1718:
  6320                           
  6321                           ;mcc_generated_files/pin_manager.c: 74:     ANSELC = 0x00;
  6322  02B2  0023               	movlb	3	; select bank3
  6323  02B3  018E               	clrf	14	;volatile
  6324  02B4                     l1720:
  6325                           
  6326                           ;mcc_generated_files/pin_manager.c: 75:     ANSELB = 0x00;
  6327  02B4  018D               	clrf	13	;volatile
  6328  02B5                     l1722:
  6329                           
  6330                           ;mcc_generated_files/pin_manager.c: 76:     ANSELA = 0x11;
  6331  02B5  3011               	movlw	17
  6332  02B6  008C               	movwf	12	;volatile
  6333  02B7                     l1724:
  6334                           
  6335                           ;mcc_generated_files/pin_manager.c: 81:     WPUB = 0x70;
  6336  02B7  3070               	movlw	112
  6337  02B8  0024               	movlb	4	; select bank4
  6338  02B9  008D               	movwf	13	;volatile
  6339  02BA                     l1726:
  6340                           
  6341                           ;mcc_generated_files/pin_manager.c: 82:     WPUA = 0x00;
  6342  02BA  018C               	clrf	12	;volatile
  6343                           
  6344                           ;mcc_generated_files/pin_manager.c: 83:     WPUC = 0x04;
  6345  02BB  3004               	movlw	4
  6346  02BC  008E               	movwf	14	;volatile
  6347  02BD                     l1728:
  6348                           
  6349                           ;mcc_generated_files/pin_manager.c: 84:     OPTION_REGbits.nWPUEN = 0;
  6350  02BD  0021               	movlb	1	; select bank1
  6351  02BE  1395               	bcf	21,7	;volatile
  6352  02BF                     l1730:
  6353                           
  6354                           ;mcc_generated_files/pin_manager.c: 89:     ODCONA = 0x00;
  6355  02BF  0025               	movlb	5	; select bank5
  6356  02C0  018C               	clrf	12	;volatile
  6357  02C1                     l1732:
  6358                           
  6359                           ;mcc_generated_files/pin_manager.c: 90:     ODCONB = 0x00;
  6360  02C1  018D               	clrf	13	;volatile
  6361  02C2                     l1734:
  6362                           
  6363                           ;mcc_generated_files/pin_manager.c: 91:     ODCONC = 0x00;
  6364  02C2  018E               	clrf	14	;volatile
  6365  02C3                     l1736:
  6366                           
  6367                           ;mcc_generated_files/pin_manager.c: 96:     SLRCONA = 0x37;
  6368  02C3  3037               	movlw	55
  6369  02C4  0026               	movlb	6	; select bank6
  6370  02C5  008C               	movwf	12	;volatile
  6371  02C6                     l1738:
  6372                           
  6373                           ;mcc_generated_files/pin_manager.c: 97:     SLRCONB = 0xF0;
  6374  02C6  30F0               	movlw	240
  6375  02C7  008D               	movwf	13	;volatile
  6376  02C8                     l1740:
  6377                           
  6378                           ;mcc_generated_files/pin_manager.c: 98:     SLRCONC = 0xFF;
  6379  02C8  30FF               	movlw	255
  6380  02C9  008E               	movwf	14	;volatile
  6381  02CA                     l1742:
  6382                           
  6383                           ;mcc_generated_files/pin_manager.c: 103:     INLVLA = 0x3F;
  6384  02CA  303F               	movlw	63
  6385  02CB  0027               	movlb	7	; select bank7
  6386  02CC  008C               	movwf	12	;volatile
  6387  02CD                     l1744:
  6388                           
  6389                           ;mcc_generated_files/pin_manager.c: 104:     INLVLB = 0xF0;
  6390  02CD  30F0               	movlw	240
  6391  02CE  008D               	movwf	13	;volatile
  6392  02CF                     l1746:
  6393                           
  6394                           ;mcc_generated_files/pin_manager.c: 105:     INLVLC = 0xFF;
  6395  02CF  30FF               	movlw	255
  6396  02D0  008E               	movwf	14	;volatile
  6397  02D1                     l1748:
  6398                           
  6399                           ;mcc_generated_files/pin_manager.c: 107:     RXPPS = 0x17;
  6400  02D1  3017               	movlw	23
  6401  02D2  003C               	movlb	28	; select bank28
  6402  02D3  00A4               	movwf	36	;volatile
  6403  02D4                     l1750:
  6404                           
  6405                           ;mcc_generated_files/pin_manager.c: 108:     RC6PPS = 0x12;
  6406  02D4  3012               	movlw	18
  6407  02D5  003D               	movlb	29	; select bank29
  6408  02D6  00A6               	movwf	38	;volatile
  6409  02D7                     l1752:
  6410                           
  6411                           ;mcc_generated_files/pin_manager.c: 110:     SSPDATPPS = 0x13;
  6412  02D7  3013               	movlw	19
  6413  02D8  003C               	movlb	28	; select bank28
  6414  02D9  00A1               	movwf	33	;volatile
  6415  02DA                     l1754:
  6416                           
  6417                           ;mcc_generated_files/pin_manager.c: 111:     RC3PPS = 0x11;
  6418  02DA  3011               	movlw	17
  6419  02DB  003D               	movlb	29	; select bank29
  6420  02DC  00A3               	movwf	35	;volatile
  6421  02DD                     l1756:
  6422                           
  6423                           ;mcc_generated_files/pin_manager.c: 112:     RC4PPS = 0x10;
  6424  02DD  3010               	movlw	16
  6425  02DE  00A4               	movwf	36	;volatile
  6426  02DF                     l1758:
  6427                           
  6428                           ;mcc_generated_files/pin_manager.c: 113:     SSPCLKPPS = 0x14;
  6429  02DF  3014               	movlw	20
  6430  02E0  003C               	movlb	28	; select bank28
  6431  02E1  00A0               	movwf	32	;volatile
  6432  02E2                     l59:
  6433  02E2  0008               	return
  6434  02E3                     __end_of_PIN_MANAGER_Initialize:
  6435                           
  6436                           	psect	text6
  6437  0144                     __ptext6:	
  6438 ;; *************** function _OSCILLATOR_Initialize *****************
  6439 ;; Defined at:
  6440 ;;		line 59 in file "mcc_generated_files/mcc.c"
  6441 ;; Parameters:    Size  Location     Type
  6442 ;;		None
  6443 ;; Auto vars:     Size  Location     Type
  6444 ;;		None
  6445 ;; Return value:  Size  Location     Type
  6446 ;;                  1    wreg      void 
  6447 ;; Registers used:
  6448 ;;		wreg, status,2
  6449 ;; Tracked objects:
  6450 ;;		On entry : 0/0
  6451 ;;		On exit  : 0/0
  6452 ;;		Unchanged: 0/0
  6453 ;; Data sizes:     COMMON   BANK0   BANK1   BANK2   BANK3   BANK4   BANK5   BANK6   BANK7   BANK8   BANK9  BANK10  BANK1
      +1  BANK12
  6454 ;;      Params:         0       0       0       0       0       0       0       0       0       0       0       0       
      +0       0
  6455 ;;      Locals:         0       0       0       0       0       0       0       0       0       0       0       0       
      +0       0
  6456 ;;      Temps:          0       0       0       0       0       0       0       0       0       0       0       0       
      +0       0
  6457 ;;      Totals:         0       0       0       0       0       0       0       0       0       0       0       0       
      +0       0
  6458 ;;Total ram usage:        0 bytes
  6459 ;; Hardware stack levels used: 1
  6460 ;; This function calls:
  6461 ;;		Nothing
  6462 ;; This function is called by:
  6463 ;;		_SYSTEM_Initialize
  6464 ;; This function uses a non-reentrant model
  6465 ;;
  6466                           
  6467                           
  6468                           ;psect for function _OSCILLATOR_Initialize
  6469  0144                     _OSCILLATOR_Initialize:
  6470  0144                     l1770:	
  6471                           ;incstack = 0
  6472                           ; Regs used in _OSCILLATOR_Initialize: [wreg+status,2]
  6473                           
  6474                           
  6475                           ;mcc_generated_files/mcc.c: 62:     OSCCON = 0x68;
  6476  0144  3068               	movlw	104
  6477  0145  0021               	movlb	1	; select bank1
  6478  0146  0099               	movwf	25	;volatile
  6479  0147                     l1772:
  6480                           
  6481                           ;mcc_generated_files/mcc.c: 64:     OSCTUNE = 0x00;
  6482  0147  0198               	clrf	24	;volatile
  6483  0148                     l1774:
  6484                           
  6485                           ;mcc_generated_files/mcc.c: 66:     BORCON = 0x00;
  6486  0148  0022               	movlb	2	; select bank2
  6487  0149  0196               	clrf	22	;volatile
  6488  014A                     l84:
  6489  014A  0008               	return
  6490  014B                     __end_of_OSCILLATOR_Initialize:
  6491                           
  6492                           	psect	text7
  6493  015D                     __ptext7:	
  6494 ;; *************** function _I2C_Master_Init *****************
  6495 ;; Defined at:
  6496 ;;		line 6 in file "mcc_generated_files/I2C_LCD.c"
  6497 ;; Parameters:    Size  Location     Type
  6498 ;;		None
  6499 ;; Auto vars:     Size  Location     Type
  6500 ;;		None
  6501 ;; Return value:  Size  Location     Type
  6502 ;;                  1    wreg      void 
  6503 ;; Registers used:
  6504 ;;		wreg, status,2
  6505 ;; Tracked objects:
  6506 ;;		On entry : 0/0
  6507 ;;		On exit  : 0/0
  6508 ;;		Unchanged: 0/0
  6509 ;; Data sizes:     COMMON   BANK0   BANK1   BANK2   BANK3   BANK4   BANK5   BANK6   BANK7   BANK8   BANK9  BANK10  BANK1
      +1  BANK12
  6510 ;;      Params:         0       0       0       0       0       0       0       0       0       0       0       0       
      +0       0
  6511 ;;      Locals:         0       0       0       0       0       0       0       0       0       0       0       0       
      +0       0
  6512 ;;      Temps:          0       0       0       0       0       0       0       0       0       0       0       0       
      +0       0
  6513 ;;      Totals:         0       0       0       0       0       0       0       0       0       0       0       0       
      +0       0
  6514 ;;Total ram usage:        0 bytes
  6515 ;; Hardware stack levels used: 1
  6516 ;; This function calls:
  6517 ;;		Nothing
  6518 ;; This function is called by:
  6519 ;;		_SYSTEM_Initialize
  6520 ;;		_main
  6521 ;; This function uses a non-reentrant model
  6522 ;;
  6523                           
  6524                           
  6525                           ;psect for function _I2C_Master_Init
  6526  015D                     _I2C_Master_Init:
  6527  015D                     l1760:	
  6528                           ;incstack = 0
  6529                           ; Regs used in _I2C_Master_Init: [wreg+status,2]
  6530                           
  6531                           
  6532                           ;mcc_generated_files/I2C_LCD.c: 8:   SSP1CON1 = 0x38;
  6533  015D  3038               	movlw	56
  6534  015E  0024               	movlb	4	; select bank4
  6535  015F  0095               	movwf	21	;volatile
  6536  0160                     l1762:
  6537                           
  6538                           ;mcc_generated_files/I2C_LCD.c: 9:   SSP1CON2 = 0x00;
  6539  0160  0196               	clrf	22	;volatile
  6540  0161                     l1764:
  6541                           
  6542                           ;mcc_generated_files/I2C_LCD.c: 10:   SSP1STAT = 0x00;
  6543  0161  0194               	clrf	20	;volatile
  6544                           
  6545                           ;mcc_generated_files/I2C_LCD.c: 11:   SSP1ADD = ((4000000/4)/100000) - 1;
  6546  0162  3009               	movlw	9
  6547  0163  0092               	movwf	18	;volatile
  6548  0164                     l1766:
  6549                           
  6550                           ;mcc_generated_files/I2C_LCD.c: 12:   TRISC4 = 1;
  6551  0164  0021               	movlb	1	; select bank1
  6552  0165  160E               	bsf	14,4	;volatile
  6553  0166                     l1768:
  6554                           
  6555                           ;mcc_generated_files/I2C_LCD.c: 13:   TRISC3 = 1;
  6556  0166  158E               	bsf	14,3	;volatile
  6557  0167                     l117:
  6558  0167  0008               	return
  6559  0168                     __end_of_I2C_Master_Init:
  6560                           
  6561                           	psect	text8
  6562  0230                     __ptext8:	
  6563 ;; *************** function _EUSART_Initialize *****************
  6564 ;; Defined at:
  6565 ;;		line 66 in file "mcc_generated_files/eusart.c"
  6566 ;; Parameters:    Size  Location     Type
  6567 ;;		None
  6568 ;; Auto vars:     Size  Location     Type
  6569 ;;		None
  6570 ;; Return value:  Size  Location     Type
  6571 ;;                  1    wreg      void 
  6572 ;; Registers used:
  6573 ;;		wreg, status,2, status,0, pclath, cstack
  6574 ;; Tracked objects:
  6575 ;;		On entry : 0/0
  6576 ;;		On exit  : 0/0
  6577 ;;		Unchanged: 0/0
  6578 ;; Data sizes:     COMMON   BANK0   BANK1   BANK2   BANK3   BANK4   BANK5   BANK6   BANK7   BANK8   BANK9  BANK10  BANK1
      +1  BANK12
  6579 ;;      Params:         0       0       0       0       0       0       0       0       0       0       0       0       
      +0       0
  6580 ;;      Locals:         0       0       0       0       0       0       0       0       0       0       0       0       
      +0       0
  6581 ;;      Temps:          0       0       0       0       0       0       0       0       0       0       0       0       
      +0       0
  6582 ;;      Totals:         0       0       0       0       0       0       0       0       0       0       0       0       
      +0       0
  6583 ;;Total ram usage:        0 bytes
  6584 ;; Hardware stack levels used: 1
  6585 ;; Hardware stack levels required when called: 1
  6586 ;; This function calls:
  6587 ;;		_EUSART_SetErrorHandler
  6588 ;;		_EUSART_SetFramingErrorHandler
  6589 ;;		_EUSART_SetOverrunErrorHandler
  6590 ;; This function is called by:
  6591 ;;		_SYSTEM_Initialize
  6592 ;; This function uses a non-reentrant model
  6593 ;;
  6594                           
  6595                           
  6596                           ;psect for function _EUSART_Initialize
  6597  0230                     _EUSART_Initialize:
  6598  0230                     l1784:	
  6599                           ;incstack = 0
  6600                           ; Regs used in _EUSART_Initialize: [wreg+status,2+status,0+pclath+cstack]
  6601                           
  6602                           
  6603                           ;mcc_generated_files/eusart.c: 71:     BAUD1CON = 0x08;
  6604  0230  3008               	movlw	8
  6605  0231  0023               	movlb	3	; select bank3
  6606  0232  009F               	movwf	31	;volatile
  6607                           
  6608                           ;mcc_generated_files/eusart.c: 74:     RC1STA = 0x90;
  6609  0233  3090               	movlw	144
  6610  0234  009D               	movwf	29	;volatile
  6611                           
  6612                           ;mcc_generated_files/eusart.c: 77:     TX1STA = 0x24;
  6613  0235  3024               	movlw	36
  6614  0236  009E               	movwf	30	;volatile
  6615                           
  6616                           ;mcc_generated_files/eusart.c: 80:     SPBRGL = 0x67;
  6617  0237  3067               	movlw	103
  6618  0238  009B               	movwf	27	;volatile
  6619  0239                     l1786:
  6620                           
  6621                           ;mcc_generated_files/eusart.c: 83:     SPBRGH = 0x00;
  6622  0239  019C               	clrf	28	;volatile
  6623  023A                     l1788:
  6624                           
  6625                           ;mcc_generated_files/eusart.c: 86:     EUSART_SetFramingErrorHandler(EUSART_DefaultFrami
      +                          ngErrorHandler);
  6626  023A  3000               	movlw	0
  6627  023B  00F0               	movwf	EUSART_SetFramingErrorHandler@interruptHandler
  6628  023C  3000               	movlw	0
  6629  023D  00F1               	movwf	EUSART_SetFramingErrorHandler@interruptHandler+1
  6630  023E  3181  2138  3182   	fcall	_EUSART_SetFramingErrorHandler
  6631  0241                     l1790:
  6632                           
  6633                           ;mcc_generated_files/eusart.c: 87:     EUSART_SetOverrunErrorHandler(EUSART_DefaultOverr
      +                          unErrorHandler);
  6634  0241  3000               	movlw	0
  6635  0242  00F0               	movwf	EUSART_SetOverrunErrorHandler@interruptHandler
  6636  0243  3000               	movlw	0
  6637  0244  00F1               	movwf	EUSART_SetOverrunErrorHandler@interruptHandler+1
  6638  0245  3181  213E  3182   	fcall	_EUSART_SetOverrunErrorHandler
  6639  0248                     l1792:
  6640                           
  6641                           ;mcc_generated_files/eusart.c: 88:     EUSART_SetErrorHandler(EUSART_DefaultErrorHandler
      +                          );
  6642  0248  3000               	movlw	0
  6643  0249  00F0               	movwf	EUSART_SetErrorHandler@interruptHandler
  6644  024A  3000               	movlw	0
  6645  024B  00F1               	movwf	EUSART_SetErrorHandler@interruptHandler+1
  6646  024C  3181  2132  3182   	fcall	_EUSART_SetErrorHandler
  6647  024F                     l1794:
  6648                           
  6649                           ;mcc_generated_files/eusart.c: 90:     eusartRxLastError.status = 0;
  6650  024F  0020               	movlb	0	; select bank0
  6651  0250  01A7               	clrf	_eusartRxLastError	;volatile
  6652  0251                     l324:
  6653  0251  0008               	return
  6654  0252                     __end_of_EUSART_Initialize:
  6655                           
  6656                           	psect	text9
  6657  013E                     __ptext9:	
  6658 ;; *************** function _EUSART_SetOverrunErrorHandler *****************
  6659 ;; Defined at:
  6660 ;;		line 161 in file "mcc_generated_files/eusart.c"
  6661 ;; Parameters:    Size  Location     Type
  6662 ;;  interruptHan    2    0[COMMON] PTR FTN()void 
  6663 ;;		 -> EUSART_DefaultOverrunErrorHandler(1), 
  6664 ;; Auto vars:     Size  Location     Type
  6665 ;;		None
  6666 ;; Return value:  Size  Location     Type
  6667 ;;                  1    wreg      void 
  6668 ;; Registers used:
  6669 ;;		wreg
  6670 ;; Tracked objects:
  6671 ;;		On entry : 0/0
  6672 ;;		On exit  : 0/0
  6673 ;;		Unchanged: 0/0
  6674 ;; Data sizes:     COMMON   BANK0   BANK1   BANK2   BANK3   BANK4   BANK5   BANK6   BANK7   BANK8   BANK9  BANK10  BANK1
      +1  BANK12
  6675 ;;      Params:         2       0       0       0       0       0       0       0       0       0       0       0       
      +0       0
  6676 ;;      Locals:         0       0       0       0       0       0       0       0       0       0       0       0       
      +0       0
  6677 ;;      Temps:          0       0       0       0       0       0       0       0       0       0       0       0       
      +0       0
  6678 ;;      Totals:         2       0       0       0       0       0       0       0       0       0       0       0       
      +0       0
  6679 ;;Total ram usage:        2 bytes
  6680 ;; Hardware stack levels used: 1
  6681 ;; This function calls:
  6682 ;;		Nothing
  6683 ;; This function is called by:
  6684 ;;		_EUSART_Initialize
  6685 ;; This function uses a non-reentrant model
  6686 ;;
  6687                           
  6688                           
  6689                           ;psect for function _EUSART_SetOverrunErrorHandler
  6690  013E                     _EUSART_SetOverrunErrorHandler:
  6691  013E                     l1706:	
  6692                           ;incstack = 0
  6693                           ; Regs used in _EUSART_SetOverrunErrorHandler: [wreg]
  6694                           
  6695                           
  6696                           ;mcc_generated_files/eusart.c: 162:     EUSART_OverrunErrorHandler = interruptHandler;
  6697  013E  0871               	movf	EUSART_SetOverrunErrorHandler@interruptHandler+1,w
  6698  013F  0020               	movlb	0	; select bank0
  6699  0140  00AE               	movwf	_EUSART_OverrunErrorHandler+1
  6700  0141  0870               	movf	EUSART_SetOverrunErrorHandler@interruptHandler,w
  6701  0142  00AD               	movwf	_EUSART_OverrunErrorHandler
  6702  0143                     l366:
  6703  0143  0008               	return
  6704  0144                     __end_of_EUSART_SetOverrunErrorHandler:
  6705                           
  6706                           	psect	text10
  6707  0138                     __ptext10:	
  6708 ;; *************** function _EUSART_SetFramingErrorHandler *****************
  6709 ;; Defined at:
  6710 ;;		line 157 in file "mcc_generated_files/eusart.c"
  6711 ;; Parameters:    Size  Location     Type
  6712 ;;  interruptHan    2    0[COMMON] PTR FTN()void 
  6713 ;;		 -> EUSART_DefaultFramingErrorHandler(1), 
  6714 ;; Auto vars:     Size  Location     Type
  6715 ;;		None
  6716 ;; Return value:  Size  Location     Type
  6717 ;;                  1    wreg      void 
  6718 ;; Registers used:
  6719 ;;		wreg
  6720 ;; Tracked objects:
  6721 ;;		On entry : 0/0
  6722 ;;		On exit  : 0/0
  6723 ;;		Unchanged: 0/0
  6724 ;; Data sizes:     COMMON   BANK0   BANK1   BANK2   BANK3   BANK4   BANK5   BANK6   BANK7   BANK8   BANK9  BANK10  BANK1
      +1  BANK12
  6725 ;;      Params:         2       0       0       0       0       0       0       0       0       0       0       0       
      +0       0
  6726 ;;      Locals:         0       0       0       0       0       0       0       0       0       0       0       0       
      +0       0
  6727 ;;      Temps:          0       0       0       0       0       0       0       0       0       0       0       0       
      +0       0
  6728 ;;      Totals:         2       0       0       0       0       0       0       0       0       0       0       0       
      +0       0
  6729 ;;Total ram usage:        2 bytes
  6730 ;; Hardware stack levels used: 1
  6731 ;; This function calls:
  6732 ;;		Nothing
  6733 ;; This function is called by:
  6734 ;;		_EUSART_Initialize
  6735 ;; This function uses a non-reentrant model
  6736 ;;
  6737                           
  6738                           
  6739                           ;psect for function _EUSART_SetFramingErrorHandler
  6740  0138                     _EUSART_SetFramingErrorHandler:
  6741  0138                     l1704:	
  6742                           ;incstack = 0
  6743                           ; Regs used in _EUSART_SetFramingErrorHandler: [wreg]
  6744                           
  6745                           
  6746                           ;mcc_generated_files/eusart.c: 158:     EUSART_FramingErrorHandler = interruptHandler;
  6747  0138  0871               	movf	EUSART_SetFramingErrorHandler@interruptHandler+1,w
  6748  0139  0020               	movlb	0	; select bank0
  6749  013A  00B0               	movwf	_EUSART_FramingErrorHandler+1
  6750  013B  0870               	movf	EUSART_SetFramingErrorHandler@interruptHandler,w
  6751  013C  00AF               	movwf	_EUSART_FramingErrorHandler
  6752  013D                     l363:
  6753  013D  0008               	return
  6754  013E                     __end_of_EUSART_SetFramingErrorHandler:
  6755                           
  6756                           	psect	text11
  6757  0132                     __ptext11:	
  6758 ;; *************** function _EUSART_SetErrorHandler *****************
  6759 ;; Defined at:
  6760 ;;		line 165 in file "mcc_generated_files/eusart.c"
  6761 ;; Parameters:    Size  Location     Type
  6762 ;;  interruptHan    2    0[COMMON] PTR FTN()void 
  6763 ;;		 -> EUSART_DefaultErrorHandler(1), 
  6764 ;; Auto vars:     Size  Location     Type
  6765 ;;		None
  6766 ;; Return value:  Size  Location     Type
  6767 ;;                  1    wreg      void 
  6768 ;; Registers used:
  6769 ;;		wreg
  6770 ;; Tracked objects:
  6771 ;;		On entry : 0/0
  6772 ;;		On exit  : 0/0
  6773 ;;		Unchanged: 0/0
  6774 ;; Data sizes:     COMMON   BANK0   BANK1   BANK2   BANK3   BANK4   BANK5   BANK6   BANK7   BANK8   BANK9  BANK10  BANK1
      +1  BANK12
  6775 ;;      Params:         2       0       0       0       0       0       0       0       0       0       0       0       
      +0       0
  6776 ;;      Locals:         0       0       0       0       0       0       0       0       0       0       0       0       
      +0       0
  6777 ;;      Temps:          0       0       0       0       0       0       0       0       0       0       0       0       
      +0       0
  6778 ;;      Totals:         2       0       0       0       0       0       0       0       0       0       0       0       
      +0       0
  6779 ;;Total ram usage:        2 bytes
  6780 ;; Hardware stack levels used: 1
  6781 ;; This function calls:
  6782 ;;		Nothing
  6783 ;; This function is called by:
  6784 ;;		_EUSART_Initialize
  6785 ;; This function uses a non-reentrant model
  6786 ;;
  6787                           
  6788                           
  6789                           ;psect for function _EUSART_SetErrorHandler
  6790  0132                     _EUSART_SetErrorHandler:
  6791  0132                     l1708:	
  6792                           ;incstack = 0
  6793                           ; Regs used in _EUSART_SetErrorHandler: [wreg]
  6794                           
  6795                           
  6796                           ;mcc_generated_files/eusart.c: 166:     EUSART_ErrorHandler = interruptHandler;
  6797  0132  0871               	movf	EUSART_SetErrorHandler@interruptHandler+1,w
  6798  0133  0020               	movlb	0	; select bank0
  6799  0134  00AC               	movwf	_EUSART_ErrorHandler+1
  6800  0135  0870               	movf	EUSART_SetErrorHandler@interruptHandler,w
  6801  0136  00AB               	movwf	_EUSART_ErrorHandler
  6802  0137                     l369:
  6803  0137  0008               	return
  6804  0138                     __end_of_EUSART_SetErrorHandler:
  6805                           
  6806                           	psect	text12
  6807  0213                     __ptext12:	
  6808 ;; *************** function _LCD_Write_String *****************
  6809 ;; Defined at:
  6810 ;;		line 90 in file "mcc_generated_files/I2C_LCD.c"
  6811 ;; Parameters:    Size  Location     Type
  6812 ;;  Str             2    6[COMMON] PTR unsigned char 
  6813 ;;		 -> STR_20(15), STR_19(16), STR_18(13), STR_17(13), 
  6814 ;;		 -> STR_16(14), STR_15(13), STR_14(16), STR_13(15), 
  6815 ;;		 -> STR_12(16), STR_11(17), STR_10(15), STR_9(16), 
  6816 ;;		 -> STR_8(12), STR_7(13), STR_6(17), STR_5(15), 
  6817 ;;		 -> STR_4(17), STR_3(15), STR_2(15), STR_1(17), 
  6818 ;; Auto vars:     Size  Location     Type
  6819 ;;  i               2    9[COMMON] int 
  6820 ;; Return value:  Size  Location     Type
  6821 ;;                  1    wreg      void 
  6822 ;; Registers used:
  6823 ;;		wreg, fsr0l, fsr0h, status,2, status,0, pclath, cstack
  6824 ;; Tracked objects:
  6825 ;;		On entry : 0/0
  6826 ;;		On exit  : 0/0
  6827 ;;		Unchanged: 0/0
  6828 ;; Data sizes:     COMMON   BANK0   BANK1   BANK2   BANK3   BANK4   BANK5   BANK6   BANK7   BANK8   BANK9  BANK10  BANK1
      +1  BANK12
  6829 ;;      Params:         2       0       0       0       0       0       0       0       0       0       0       0       
      +0       0
  6830 ;;      Locals:         2       0       0       0       0       0       0       0       0       0       0       0       
      +0       0
  6831 ;;      Temps:          1       0       0       0       0       0       0       0       0       0       0       0       
      +0       0
  6832 ;;      Totals:         5       0       0       0       0       0       0       0       0       0       0       0       
      +0       0
  6833 ;;Total ram usage:        5 bytes
  6834 ;; Hardware stack levels used: 1
  6835 ;; Hardware stack levels required when called: 5
  6836 ;; This function calls:
  6837 ;;		_LCD_Write_Char
  6838 ;; This function is called by:
  6839 ;;		_main
  6840 ;; This function uses a non-reentrant model
  6841 ;;
  6842                           
  6843                           
  6844                           ;psect for function _LCD_Write_String
  6845  0213                     _LCD_Write_String:
  6846  0213                     l2060:	
  6847                           ;incstack = 0
  6848                           ; Regs used in _LCD_Write_String: [wreg-fsr0h+status,2+status,0+pclath+cstack]
  6849                           
  6850                           
  6851                           ;mcc_generated_files/I2C_LCD.c: 90: void LCD_Write_String(char* Str);mcc_generated_files
      +                          /I2C_LCD.c: 91: {;mcc_generated_files/I2C_LCD.c: 92:   for(int i=0; Str[i]!='\0'; i++)
  6852  0213  01F9               	clrf	LCD_Write_String@i
  6853  0214  01FA               	clrf	LCD_Write_String@i+1
  6854  0215  2A24               	goto	l2066
  6855  0216                     l2062:
  6856                           
  6857                           ;mcc_generated_files/I2C_LCD.c: 93:     LCD_Write_Char(Str[i]);
  6858  0216  0876               	movf	LCD_Write_String@Str,w
  6859  0217  0779               	addwf	LCD_Write_String@i,w
  6860  0218  0084               	movwf	4
  6861  0219  0877               	movf	LCD_Write_String@Str+1,w
  6862  021A  3D7A               	addwfc	LCD_Write_String@i+1,w
  6863  021B  0085               	movwf	5
  6864  021C  0800               	movf	0,w	;code access
  6865  021D  3181  21FD  3182   	fcall	_LCD_Write_Char
  6866  0220                     l2064:
  6867  0220  3001               	movlw	1
  6868  0221  07F9               	addwf	LCD_Write_String@i,f
  6869  0222  3000               	movlw	0
  6870  0223  3DFA               	addwfc	LCD_Write_String@i+1,f
  6871  0224                     l2066:
  6872  0224  0876               	movf	LCD_Write_String@Str,w
  6873  0225  0779               	addwf	LCD_Write_String@i,w
  6874  0226  0084               	movwf	4
  6875  0227  0877               	movf	LCD_Write_String@Str+1,w
  6876  0228  3D7A               	addwfc	LCD_Write_String@i+1,w
  6877  0229  0085               	movwf	5
  6878  022A  0012               	moviw fsr0++
  6879  022B  1D03               	btfss	3,2
  6880  022C  2A2E               	goto	u1231
  6881  022D  2A2F               	goto	u1230
  6882  022E                     u1231:
  6883  022E  2A16               	goto	l2062
  6884  022F                     u1230:
  6885  022F                     l156:
  6886  022F  0008               	return
  6887  0230                     __end_of_LCD_Write_String:
  6888                           
  6889                           	psect	text13
  6890  01FD                     __ptext13:	
  6891 ;; *************** function _LCD_Write_Char *****************
  6892 ;; Defined at:
  6893 ;;		line 84 in file "mcc_generated_files/I2C_LCD.c"
  6894 ;; Parameters:    Size  Location     Type
  6895 ;;  Data            1    wreg     unsigned char 
  6896 ;; Auto vars:     Size  Location     Type
  6897 ;;  Data            1    5[COMMON] unsigned char 
  6898 ;; Return value:  Size  Location     Type
  6899 ;;                  1    wreg      void 
  6900 ;; Registers used:
  6901 ;;		wreg, status,2, status,0, pclath, cstack
  6902 ;; Tracked objects:
  6903 ;;		On entry : 0/0
  6904 ;;		On exit  : 0/0
  6905 ;;		Unchanged: 0/0
  6906 ;; Data sizes:     COMMON   BANK0   BANK1   BANK2   BANK3   BANK4   BANK5   BANK6   BANK7   BANK8   BANK9  BANK10  BANK1
      +1  BANK12
  6907 ;;      Params:         0       0       0       0       0       0       0       0       0       0       0       0       
      +0       0
  6908 ;;      Locals:         1       0       0       0       0       0       0       0       0       0       0       0       
      +0       0
  6909 ;;      Temps:          1       0       0       0       0       0       0       0       0       0       0       0       
      +0       0
  6910 ;;      Totals:         2       0       0       0       0       0       0       0       0       0       0       0       
      +0       0
  6911 ;;Total ram usage:        2 bytes
  6912 ;; Hardware stack levels used: 1
  6913 ;; Hardware stack levels required when called: 4
  6914 ;; This function calls:
  6915 ;;		_LCD_Write_4Bit
  6916 ;; This function is called by:
  6917 ;;		_LCD_Write_String
  6918 ;;		_main
  6919 ;; This function uses a non-reentrant model
  6920 ;;
  6921                           
  6922                           
  6923                           ;psect for function _LCD_Write_Char
  6924  01FD                     _LCD_Write_Char:
  6925                           
  6926                           ;incstack = 0
  6927                           ; Regs used in _LCD_Write_Char: [wreg+status,2+status,0+pclath+cstack]
  6928                           ;LCD_Write_Char@Data stored from wreg
  6929  01FD  00F5               	movwf	LCD_Write_Char@Data
  6930  01FE                     l1802:
  6931                           
  6932                           ;mcc_generated_files/I2C_LCD.c: 84: void LCD_Write_Char(char Data);mcc_generated_files/I
      +                          2C_LCD.c: 85: {;mcc_generated_files/I2C_LCD.c: 86:   RS = 1;
  6933  01FE  0020               	movlb	0	; select bank0
  6934  01FF  01A8               	clrf	_RS
  6935  0200  0AA8               	incf	_RS,f
  6936  0201                     l1804:
  6937                           
  6938                           ;mcc_generated_files/I2C_LCD.c: 87:   LCD_Write_4Bit(Data & 0xF0);
  6939  0201  0875               	movf	LCD_Write_Char@Data,w
  6940  0202  39F0               	andlw	240
  6941  0203  3181  21D3  3181   	fcall	_LCD_Write_4Bit
  6942                           
  6943                           ;mcc_generated_files/I2C_LCD.c: 88:   LCD_Write_4Bit((Data << 4) & 0xF0);
  6944  0206  0875               	movf	LCD_Write_Char@Data,w
  6945  0207  00F4               	movwf	??_LCD_Write_Char
  6946  0208  3003               	movlw	3
  6947  0209                     u745:
  6948  0209  35F4               	lslf	??_LCD_Write_Char,f
  6949  020A  3EFF               	addlw	-1
  6950  020B  1D03               	skipz
  6951  020C  2A09               	goto	u745
  6952  020D  3574               	lslf	??_LCD_Write_Char,w
  6953  020E  39F0               	andlw	240
  6954  020F  3181  21D3  3181   	fcall	_LCD_Write_4Bit
  6955  0212                     l150:
  6956  0212  0008               	return
  6957  0213                     __end_of_LCD_Write_Char:
  6958                           
  6959                           	psect	text14
  6960  0279                     __ptext14:	
  6961 ;; *************** function _LCD_Set_Cursor *****************
  6962 ;; Defined at:
  6963 ;;		line 95 in file "mcc_generated_files/I2C_LCD.c"
  6964 ;; Parameters:    Size  Location     Type
  6965 ;;  ROW             1    wreg     unsigned char 
  6966 ;;  COL             1    6[COMMON] unsigned char 
  6967 ;; Auto vars:     Size  Location     Type
  6968 ;;  ROW             1    9[COMMON] unsigned char 
  6969 ;; Return value:  Size  Location     Type
  6970 ;;                  1    wreg      void 
  6971 ;; Registers used:
  6972 ;;		wreg, fsr0l, fsr0h, status,2, status,0, pclath, cstack
  6973 ;; Tracked objects:
  6974 ;;		On entry : 0/0
  6975 ;;		On exit  : 0/0
  6976 ;;		Unchanged: 0/0
  6977 ;; Data sizes:     COMMON   BANK0   BANK1   BANK2   BANK3   BANK4   BANK5   BANK6   BANK7   BANK8   BANK9  BANK10  BANK1
      +1  BANK12
  6978 ;;      Params:         1       0       0       0       0       0       0       0       0       0       0       0       
      +0       0
  6979 ;;      Locals:         1       0       0       0       0       0       0       0       0       0       0       0       
      +0       0
  6980 ;;      Temps:          2       0       0       0       0       0       0       0       0       0       0       0       
      +0       0
  6981 ;;      Totals:         4       0       0       0       0       0       0       0       0       0       0       0       
      +0       0
  6982 ;;Total ram usage:        4 bytes
  6983 ;; Hardware stack levels used: 1
  6984 ;; Hardware stack levels required when called: 5
  6985 ;; This function calls:
  6986 ;;		_LCD_CMD
  6987 ;; This function is called by:
  6988 ;;		_main
  6989 ;; This function uses a non-reentrant model
  6990 ;;
  6991                           
  6992                           
  6993                           ;psect for function _LCD_Set_Cursor
  6994  0279                     _LCD_Set_Cursor:
  6995                           
  6996                           ;incstack = 0
  6997                           ; Regs used in _LCD_Set_Cursor: [wreg-fsr0h+status,2+status,0+pclath+cstack]
  6998                           ;LCD_Set_Cursor@ROW stored from wreg
  6999  0279  00F9               	movwf	LCD_Set_Cursor@ROW
  7000  027A                     l2068:
  7001                           
  7002                           ;mcc_generated_files/I2C_LCD.c: 95: void LCD_Set_Cursor(unsigned char ROW, unsigned char
      +                           COL);mcc_generated_files/I2C_LCD.c: 96: {;mcc_generated_files/I2C_LCD.c: 97:   switch(R
      +                          OW)
  7003  027A  2A93               	goto	l2078
  7004  027B                     l2070:
  7005                           
  7006                           ;mcc_generated_files/I2C_LCD.c: 100:       LCD_CMD(0xC0 + COL-1);
  7007  027B  0876               	movf	LCD_Set_Cursor@COL,w
  7008  027C  3EBF               	addlw	191
  7009  027D  3181  21E8  3182   	fcall	_LCD_CMD
  7010                           
  7011                           ;mcc_generated_files/I2C_LCD.c: 101:       break;
  7012  0280  2AA6               	goto	l165
  7013  0281                     l2072:
  7014                           
  7015                           ;mcc_generated_files/I2C_LCD.c: 103:       LCD_CMD(0x94 + COL-1);
  7016  0281  0876               	movf	LCD_Set_Cursor@COL,w
  7017  0282  3E93               	addlw	147
  7018  0283  3181  21E8  3182   	fcall	_LCD_CMD
  7019                           
  7020                           ;mcc_generated_files/I2C_LCD.c: 104:       break;
  7021  0286  2AA6               	goto	l165
  7022  0287                     l2074:
  7023                           
  7024                           ;mcc_generated_files/I2C_LCD.c: 106:       LCD_CMD(0xD4 + COL-1);
  7025  0287  0876               	movf	LCD_Set_Cursor@COL,w
  7026  0288  3ED3               	addlw	211
  7027  0289  3181  21E8  3182   	fcall	_LCD_CMD
  7028                           
  7029                           ;mcc_generated_files/I2C_LCD.c: 107:       break;
  7030  028C  2AA6               	goto	l165
  7031  028D                     l2076:
  7032                           
  7033                           ;mcc_generated_files/I2C_LCD.c: 110:       LCD_CMD(0x80 + COL-1);
  7034  028D  0876               	movf	LCD_Set_Cursor@COL,w
  7035  028E  3E7F               	addlw	127
  7036  028F  3181  21E8  3182   	fcall	_LCD_CMD
  7037                           
  7038                           ;mcc_generated_files/I2C_LCD.c: 111:   }
  7039  0292  2AA6               	goto	l165
  7040  0293                     l2078:
  7041  0293  0879               	movf	LCD_Set_Cursor@ROW,w
  7042  0294  00F7               	movwf	??_LCD_Set_Cursor
  7043  0295  01F8               	clrf	??_LCD_Set_Cursor+1
  7044                           
  7045                           ; Switch on 2 bytes has been partitioned into a top level switch of size 1, and 1 sub-sw
      +                          itches
  7046                           ; Switch size 1, requested type "simple"
  7047                           ; Number of cases is 1, Range of values is 0 to 0
  7048                           ; switch strategies available:
  7049                           ; Name         Instructions Cycles
  7050                           ; simple_byte            4     3 (average)
  7051                           ; direct_byte            8     6 (fixed)
  7052                           ; jumptable            260     6 (fixed)
  7053                           ;	Chosen strategy is simple_byte
  7054  0296  0878               	movf	??_LCD_Set_Cursor+1,w
  7055  0297  3A00               	xorlw	0	; case 0
  7056  0298  1903               	skipnz
  7057  0299  2A9B               	goto	l2326
  7058  029A  2A8D               	goto	l2076
  7059  029B                     l2326:
  7060                           
  7061                           ; Switch size 1, requested type "simple"
  7062                           ; Number of cases is 3, Range of values is 2 to 4
  7063                           ; switch strategies available:
  7064                           ; Name         Instructions Cycles
  7065                           ; simple_byte           10     6 (average)
  7066                           ; direct_byte           15     9 (fixed)
  7067                           ; jumptable            263     9 (fixed)
  7068                           ;	Chosen strategy is simple_byte
  7069  029B  0877               	movf	??_LCD_Set_Cursor,w
  7070  029C  3A02               	xorlw	2	; case 2
  7071  029D  1903               	skipnz
  7072  029E  2A7B               	goto	l2070
  7073  029F  3A01               	xorlw	1	; case 3
  7074  02A0  1903               	skipnz
  7075  02A1  2A81               	goto	l2072
  7076  02A2  3A07               	xorlw	7	; case 4
  7077  02A3  1903               	skipnz
  7078  02A4  2A87               	goto	l2074
  7079  02A5  2A8D               	goto	l2076
  7080  02A6                     l165:
  7081  02A6  0008               	return
  7082  02A7                     __end_of_LCD_Set_Cursor:
  7083                           
  7084                           	psect	text15
  7085  02E3                     __ptext15:	
  7086 ;; *************** function _LCD_Init *****************
  7087 ;; Defined at:
  7088 ;;		line 41 in file "mcc_generated_files/I2C_LCD.c"
  7089 ;; Parameters:    Size  Location     Type
  7090 ;;  I2C_Add         1    wreg     unsigned char 
  7091 ;; Auto vars:     Size  Location     Type
  7092 ;;  I2C_Add         1    7[COMMON] unsigned char 
  7093 ;; Return value:  Size  Location     Type
  7094 ;;                  1    wreg      void 
  7095 ;; Registers used:
  7096 ;;		wreg, status,2, status,0, pclath, cstack
  7097 ;; Tracked objects:
  7098 ;;		On entry : 0/0
  7099 ;;		On exit  : 0/0
  7100 ;;		Unchanged: 0/0
  7101 ;; Data sizes:     COMMON   BANK0   BANK1   BANK2   BANK3   BANK4   BANK5   BANK6   BANK7   BANK8   BANK9  BANK10  BANK1
      +1  BANK12
  7102 ;;      Params:         0       0       0       0       0       0       0       0       0       0       0       0       
      +0       0
  7103 ;;      Locals:         1       0       0       0       0       0       0       0       0       0       0       0       
      +0       0
  7104 ;;      Temps:          1       0       0       0       0       0       0       0       0       0       0       0       
      +0       0
  7105 ;;      Totals:         2       0       0       0       0       0       0       0       0       0       0       0       
      +0       0
  7106 ;;Total ram usage:        2 bytes
  7107 ;; Hardware stack levels used: 1
  7108 ;; Hardware stack levels required when called: 5
  7109 ;; This function calls:
  7110 ;;		_IO_Expander_Write
  7111 ;;		_LCD_CMD
  7112 ;; This function is called by:
  7113 ;;		_main
  7114 ;; This function uses a non-reentrant model
  7115 ;;
  7116                           
  7117                           
  7118                           ;psect for function _LCD_Init
  7119  02E3                     _LCD_Init:
  7120                           
  7121                           ;incstack = 0
  7122                           ; Regs used in _LCD_Init: [wreg+status,2+status,0+pclath+cstack]
  7123                           ;LCD_Init@I2C_Add stored from wreg
  7124  02E3  00F7               	movwf	LCD_Init@I2C_Add
  7125  02E4                     l2034:
  7126                           
  7127                           ;mcc_generated_files/I2C_LCD.c: 41: void LCD_Init(unsigned char I2C_Add);mcc_generated_f
      +                          iles/I2C_LCD.c: 42: {;mcc_generated_files/I2C_LCD.c: 43:   i2c_add = I2C_Add;
  7128  02E4  0877               	movf	LCD_Init@I2C_Add,w
  7129  02E5  00F6               	movwf	??_LCD_Init
  7130  02E6  0876               	movf	??_LCD_Init,w
  7131  02E7  0020               	movlb	0	; select bank0
  7132  02E8  00B2               	movwf	_i2c_add
  7133  02E9                     l2036:
  7134                           
  7135                           ;mcc_generated_files/I2C_LCD.c: 44:   IO_Expander_Write(0x00);
  7136  02E9  3000               	movlw	0
  7137  02EA  3181  21C0  3182   	fcall	_IO_Expander_Write
  7138  02ED                     l2038:
  7139                           
  7140                           ;mcc_generated_files/I2C_LCD.c: 45:   _delay((unsigned long)((30)*(4000000/4000.0)));
  7141  02ED  3027               	movlw	39
  7142  02EE  00F6               	movwf	??_LCD_Init
  7143  02EF  30F5               	movlw	245
  7144  02F0                     u1627:
  7145  02F0  0B89               	decfsz	9,f
  7146  02F1  2AF0               	goto	u1627
  7147  02F2  0BF6               	decfsz	??_LCD_Init,f
  7148  02F3  2AF0               	goto	u1627
  7149  02F4  0000               	nop
  7150                           
  7151                           ;mcc_generated_files/I2C_LCD.c: 46:   LCD_CMD(0x03);
  7152  02F5  3003               	movlw	3
  7153  02F6  3181  21E8  3182   	fcall	_LCD_CMD
  7154  02F9                     l2040:
  7155                           
  7156                           ;mcc_generated_files/I2C_LCD.c: 47:   _delay((unsigned long)((5)*(4000000/4000.0)));
  7157  02F9  3007               	movlw	7
  7158  02FA  00F6               	movwf	??_LCD_Init
  7159  02FB  307D               	movlw	125
  7160  02FC                     u1637:
  7161  02FC  0B89               	decfsz	9,f
  7162  02FD  2AFC               	goto	u1637
  7163  02FE  0BF6               	decfsz	??_LCD_Init,f
  7164  02FF  2AFC               	goto	u1637
  7165  0300  0000               	nop
  7166  0301                     l2042:
  7167                           
  7168                           ;mcc_generated_files/I2C_LCD.c: 48:   LCD_CMD(0x03);
  7169  0301  3003               	movlw	3
  7170  0302  3181  21E8  3182   	fcall	_LCD_CMD
  7171                           
  7172                           ;mcc_generated_files/I2C_LCD.c: 49:   _delay((unsigned long)((5)*(4000000/4000.0)));
  7173  0305  3007               	movlw	7
  7174  0306  00F6               	movwf	??_LCD_Init
  7175  0307  307D               	movlw	125
  7176  0308                     u1647:
  7177  0308  0B89               	decfsz	9,f
  7178  0309  2B08               	goto	u1647
  7179  030A  0BF6               	decfsz	??_LCD_Init,f
  7180  030B  2B08               	goto	u1647
  7181  030C  0000               	nop
  7182  030D                     l2044:
  7183                           
  7184                           ;mcc_generated_files/I2C_LCD.c: 50:   LCD_CMD(0x03);
  7185  030D  3003               	movlw	3
  7186  030E  3181  21E8  3182   	fcall	_LCD_CMD
  7187  0311                     l2046:
  7188                           
  7189                           ;mcc_generated_files/I2C_LCD.c: 51:   _delay((unsigned long)((5)*(4000000/4000.0)));
  7190  0311  3007               	movlw	7
  7191  0312  00F6               	movwf	??_LCD_Init
  7192  0313  307D               	movlw	125
  7193  0314                     u1657:
  7194  0314  0B89               	decfsz	9,f
  7195  0315  2B14               	goto	u1657
  7196  0316  0BF6               	decfsz	??_LCD_Init,f
  7197  0317  2B14               	goto	u1657
  7198  0318  0000               	nop
  7199                           
  7200                           ;mcc_generated_files/I2C_LCD.c: 52:   LCD_CMD(0x02);
  7201  0319  3002               	movlw	2
  7202  031A  3181  21E8  3182   	fcall	_LCD_CMD
  7203  031D                     l2048:
  7204                           
  7205                           ;mcc_generated_files/I2C_LCD.c: 53:   _delay((unsigned long)((5)*(4000000/4000.0)));
  7206  031D  3007               	movlw	7
  7207  031E  00F6               	movwf	??_LCD_Init
  7208  031F  307D               	movlw	125
  7209  0320                     u1667:
  7210  0320  0B89               	decfsz	9,f
  7211  0321  2B20               	goto	u1667
  7212  0322  0BF6               	decfsz	??_LCD_Init,f
  7213  0323  2B20               	goto	u1667
  7214  0324  0000               	nop
  7215  0325                     l2050:
  7216                           
  7217                           ;mcc_generated_files/I2C_LCD.c: 54:   LCD_CMD(0x20 | (2 << 2));
  7218  0325  3028               	movlw	40
  7219  0326  3181  21E8  3182   	fcall	_LCD_CMD
  7220                           
  7221                           ;mcc_generated_files/I2C_LCD.c: 55:   _delay((unsigned long)((50)*(4000000/4000.0)));
  7222  0329  3041               	movlw	65
  7223  032A  00F6               	movwf	??_LCD_Init
  7224  032B  30EE               	movlw	238
  7225  032C                     u1677:
  7226  032C  0B89               	decfsz	9,f
  7227  032D  2B2C               	goto	u1677
  7228  032E  0BF6               	decfsz	??_LCD_Init,f
  7229  032F  2B2C               	goto	u1677
  7230  0330  3200               	nop2
  7231  0331                     l2052:
  7232                           
  7233                           ;mcc_generated_files/I2C_LCD.c: 56:   LCD_CMD(0x0C);
  7234  0331  300C               	movlw	12
  7235  0332  3181  21E8  3182   	fcall	_LCD_CMD
  7236  0335                     l2054:
  7237                           
  7238                           ;mcc_generated_files/I2C_LCD.c: 57:   _delay((unsigned long)((50)*(4000000/4000.0)));
  7239  0335  3041               	movlw	65
  7240  0336  00F6               	movwf	??_LCD_Init
  7241  0337  30EE               	movlw	238
  7242  0338                     u1687:
  7243  0338  0B89               	decfsz	9,f
  7244  0339  2B38               	goto	u1687
  7245  033A  0BF6               	decfsz	??_LCD_Init,f
  7246  033B  2B38               	goto	u1687
  7247  033C  3200               	nop2
  7248                           
  7249                           ;mcc_generated_files/I2C_LCD.c: 58:   LCD_CMD(0x01);
  7250  033D  3001               	movlw	1
  7251  033E  3181  21E8  3182   	fcall	_LCD_CMD
  7252  0341                     l2056:
  7253                           
  7254                           ;mcc_generated_files/I2C_LCD.c: 59:   _delay((unsigned long)((50)*(4000000/4000.0)));
  7255  0341  3041               	movlw	65
  7256  0342  00F6               	movwf	??_LCD_Init
  7257  0343  30EE               	movlw	238
  7258  0344                     u1697:
  7259  0344  0B89               	decfsz	9,f
  7260  0345  2B44               	goto	u1697
  7261  0346  0BF6               	decfsz	??_LCD_Init,f
  7262  0347  2B44               	goto	u1697
  7263  0348  3200               	nop2
  7264  0349                     l2058:
  7265                           
  7266                           ;mcc_generated_files/I2C_LCD.c: 60:   LCD_CMD(0x04 | 0x02);
  7267  0349  3006               	movlw	6
  7268  034A  3181  21E8  3182   	fcall	_LCD_CMD
  7269                           
  7270                           ;mcc_generated_files/I2C_LCD.c: 61:   _delay((unsigned long)((50)*(4000000/4000.0)));
  7271  034D  3041               	movlw	65
  7272  034E  00F6               	movwf	??_LCD_Init
  7273  034F  30EE               	movlw	238
  7274  0350                     u1707:
  7275  0350  0B89               	decfsz	9,f
  7276  0351  2B50               	goto	u1707
  7277  0352  0BF6               	decfsz	??_LCD_Init,f
  7278  0353  2B50               	goto	u1707
  7279  0354  3200               	nop2
  7280  0355                     l138:
  7281  0355  0008               	return
  7282  0356                     __end_of_LCD_Init:
  7283                           
  7284                           	psect	text16
  7285  0154                     __ptext16:	
  7286 ;; *************** function _LCD_Clear *****************
  7287 ;; Defined at:
  7288 ;;		line 133 in file "mcc_generated_files/I2C_LCD.c"
  7289 ;; Parameters:    Size  Location     Type
  7290 ;;		None
  7291 ;; Auto vars:     Size  Location     Type
  7292 ;;		None
  7293 ;; Return value:  Size  Location     Type
  7294 ;;                  1    wreg      void 
  7295 ;; Registers used:
  7296 ;;		wreg, status,2, status,0, pclath, cstack
  7297 ;; Tracked objects:
  7298 ;;		On entry : 0/0
  7299 ;;		On exit  : 0/0
  7300 ;;		Unchanged: 0/0
  7301 ;; Data sizes:     COMMON   BANK0   BANK1   BANK2   BANK3   BANK4   BANK5   BANK6   BANK7   BANK8   BANK9  BANK10  BANK1
      +1  BANK12
  7302 ;;      Params:         0       0       0       0       0       0       0       0       0       0       0       0       
      +0       0
  7303 ;;      Locals:         0       0       0       0       0       0       0       0       0       0       0       0       
      +0       0
  7304 ;;      Temps:          0       0       0       0       0       0       0       0       0       0       0       0       
      +0       0
  7305 ;;      Totals:         0       0       0       0       0       0       0       0       0       0       0       0       
      +0       0
  7306 ;;Total ram usage:        0 bytes
  7307 ;; Hardware stack levels used: 1
  7308 ;; Hardware stack levels required when called: 5
  7309 ;; This function calls:
  7310 ;;		_LCD_CMD
  7311 ;; This function is called by:
  7312 ;;		_main
  7313 ;; This function uses a non-reentrant model
  7314 ;;
  7315                           
  7316                           
  7317                           ;psect for function _LCD_Clear
  7318  0154                     _LCD_Clear:
  7319  0154                     l2084:	
  7320                           ;incstack = 0
  7321                           ; Regs used in _LCD_Clear: [wreg+status,2+status,0+pclath+cstack]
  7322                           
  7323                           
  7324                           ;mcc_generated_files/I2C_LCD.c: 135:   LCD_CMD(0x01);
  7325  0154  3001               	movlw	1
  7326  0155  3181  21E8  3181   	fcall	_LCD_CMD
  7327  0158                     l2086:
  7328                           
  7329                           ;mcc_generated_files/I2C_LCD.c: 136:   _delay((unsigned long)((40)*(4000000/4000000.0)))
      +                          ;
  7330  0158  300D               	movlw	13
  7331  0159                     u1717:
  7332  0159  0B89               	decfsz	9,f
  7333  015A  2959               	goto	u1717
  7334  015B  0000               	nop
  7335  015C                     l180:
  7336  015C  0008               	return
  7337  015D                     __end_of_LCD_Clear:
  7338                           
  7339                           	psect	text17
  7340  01E8                     __ptext17:	
  7341 ;; *************** function _LCD_CMD *****************
  7342 ;; Defined at:
  7343 ;;		line 78 in file "mcc_generated_files/I2C_LCD.c"
  7344 ;; Parameters:    Size  Location     Type
  7345 ;;  CMD             1    wreg     unsigned char 
  7346 ;; Auto vars:     Size  Location     Type
  7347 ;;  CMD             1    5[COMMON] unsigned char 
  7348 ;; Return value:  Size  Location     Type
  7349 ;;                  1    wreg      void 
  7350 ;; Registers used:
  7351 ;;		wreg, status,2, status,0, pclath, cstack
  7352 ;; Tracked objects:
  7353 ;;		On entry : 0/0
  7354 ;;		On exit  : 0/0
  7355 ;;		Unchanged: 0/0
  7356 ;; Data sizes:     COMMON   BANK0   BANK1   BANK2   BANK3   BANK4   BANK5   BANK6   BANK7   BANK8   BANK9  BANK10  BANK1
      +1  BANK12
  7357 ;;      Params:         0       0       0       0       0       0       0       0       0       0       0       0       
      +0       0
  7358 ;;      Locals:         1       0       0       0       0       0       0       0       0       0       0       0       
      +0       0
  7359 ;;      Temps:          1       0       0       0       0       0       0       0       0       0       0       0       
      +0       0
  7360 ;;      Totals:         2       0       0       0       0       0       0       0       0       0       0       0       
      +0       0
  7361 ;;Total ram usage:        2 bytes
  7362 ;; Hardware stack levels used: 1
  7363 ;; Hardware stack levels required when called: 4
  7364 ;; This function calls:
  7365 ;;		_LCD_Write_4Bit
  7366 ;; This function is called by:
  7367 ;;		_LCD_Init
  7368 ;;		_LCD_Set_Cursor
  7369 ;;		_LCD_Clear
  7370 ;;		_LCD_SL
  7371 ;;		_LCD_SR
  7372 ;; This function uses a non-reentrant model
  7373 ;;
  7374                           
  7375                           
  7376                           ;psect for function _LCD_CMD
  7377  01E8                     _LCD_CMD:
  7378                           
  7379                           ;incstack = 0
  7380                           ; Regs used in _LCD_CMD: [wreg+status,2+status,0+pclath+cstack]
  7381                           ;LCD_CMD@CMD stored from wreg
  7382  01E8  00F5               	movwf	LCD_CMD@CMD
  7383  01E9                     l1796:
  7384                           
  7385                           ;mcc_generated_files/I2C_LCD.c: 78: void LCD_CMD(unsigned char CMD);mcc_generated_files/
      +                          I2C_LCD.c: 79: {;mcc_generated_files/I2C_LCD.c: 80:   RS = 0;
  7386  01E9  0020               	movlb	0	; select bank0
  7387  01EA  01A8               	clrf	_RS
  7388  01EB                     l1798:
  7389                           
  7390                           ;mcc_generated_files/I2C_LCD.c: 81:   LCD_Write_4Bit(CMD & 0xF0);
  7391  01EB  0875               	movf	LCD_CMD@CMD,w
  7392  01EC  39F0               	andlw	240
  7393  01ED  3181  21D3  3181   	fcall	_LCD_Write_4Bit
  7394  01F0                     l1800:
  7395                           
  7396                           ;mcc_generated_files/I2C_LCD.c: 82:   LCD_Write_4Bit((CMD << 4) & 0xF0);
  7397  01F0  0875               	movf	LCD_CMD@CMD,w
  7398  01F1  00F4               	movwf	??_LCD_CMD
  7399  01F2  3003               	movlw	3
  7400  01F3                     u735:
  7401  01F3  35F4               	lslf	??_LCD_CMD,f
  7402  01F4  3EFF               	addlw	-1
  7403  01F5  1D03               	skipz
  7404  01F6  29F3               	goto	u735
  7405  01F7  3574               	lslf	??_LCD_CMD,w
  7406  01F8  39F0               	andlw	240
  7407  01F9  3181  21D3  3181   	fcall	_LCD_Write_4Bit
  7408  01FC                     l147:
  7409  01FC  0008               	return
  7410  01FD                     __end_of_LCD_CMD:
  7411                           
  7412                           	psect	text18
  7413  01D3                     __ptext18:	
  7414 ;; *************** function _LCD_Write_4Bit *****************
  7415 ;; Defined at:
  7416 ;;		line 70 in file "mcc_generated_files/I2C_LCD.c"
  7417 ;; Parameters:    Size  Location     Type
  7418 ;;  Nibble          1    wreg     unsigned char 
  7419 ;; Auto vars:     Size  Location     Type
  7420 ;;  Nibble          1    3[COMMON] unsigned char 
  7421 ;; Return value:  Size  Location     Type
  7422 ;;                  1    wreg      void 
  7423 ;; Registers used:
  7424 ;;		wreg, status,2, status,0, pclath, cstack
  7425 ;; Tracked objects:
  7426 ;;		On entry : 0/0
  7427 ;;		On exit  : 0/0
  7428 ;;		Unchanged: 0/0
  7429 ;; Data sizes:     COMMON   BANK0   BANK1   BANK2   BANK3   BANK4   BANK5   BANK6   BANK7   BANK8   BANK9  BANK10  BANK1
      +1  BANK12
  7430 ;;      Params:         0       0       0       0       0       0       0       0       0       0       0       0       
      +0       0
  7431 ;;      Locals:         1       0       0       0       0       0       0       0       0       0       0       0       
      +0       0
  7432 ;;      Temps:          1       0       0       0       0       0       0       0       0       0       0       0       
      +0       0
  7433 ;;      Totals:         2       0       0       0       0       0       0       0       0       0       0       0       
      +0       0
  7434 ;;Total ram usage:        2 bytes
  7435 ;; Hardware stack levels used: 1
  7436 ;; Hardware stack levels required when called: 3
  7437 ;; This function calls:
  7438 ;;		_IO_Expander_Write
  7439 ;; This function is called by:
  7440 ;;		_LCD_CMD
  7441 ;;		_LCD_Write_Char
  7442 ;; This function uses a non-reentrant model
  7443 ;;
  7444                           
  7445                           
  7446                           ;psect for function _LCD_Write_4Bit
  7447  01D3                     _LCD_Write_4Bit:
  7448                           
  7449                           ;incstack = 0
  7450                           ; Regs used in _LCD_Write_4Bit: [wreg+status,2+status,0+pclath+cstack]
  7451                           ;LCD_Write_4Bit@Nibble stored from wreg
  7452  01D3  00F3               	movwf	LCD_Write_4Bit@Nibble
  7453  01D4                     l1698:
  7454                           
  7455                           ;mcc_generated_files/I2C_LCD.c: 70: void LCD_Write_4Bit(unsigned char Nibble);mcc_genera
      +                          ted_files/I2C_LCD.c: 71: {;mcc_generated_files/I2C_LCD.c: 73:   Nibble |= RS;
  7456  01D4  0020               	movlb	0	; select bank0
  7457  01D5  0828               	movf	_RS,w
  7458  01D6  00F2               	movwf	??_LCD_Write_4Bit
  7459  01D7  0872               	movf	??_LCD_Write_4Bit,w
  7460  01D8  04F3               	iorwf	LCD_Write_4Bit@Nibble,f
  7461  01D9                     l1700:
  7462                           
  7463                           ;mcc_generated_files/I2C_LCD.c: 74:   IO_Expander_Write(Nibble | 0x04);
  7464  01D9  0873               	movf	LCD_Write_4Bit@Nibble,w
  7465  01DA  3804               	iorlw	4
  7466  01DB  3181  21C0  3181   	fcall	_IO_Expander_Write
  7467  01DE                     l1702:
  7468                           
  7469                           ;mcc_generated_files/I2C_LCD.c: 75:   IO_Expander_Write(Nibble & 0xFB);
  7470  01DE  0873               	movf	LCD_Write_4Bit@Nibble,w
  7471  01DF  39FB               	andlw	251
  7472  01E0  3181  21C0  3181   	fcall	_IO_Expander_Write
  7473                           
  7474                           ;mcc_generated_files/I2C_LCD.c: 76:   _delay((unsigned long)((50)*(4000000/4000000.0)));
  7475  01E3  3010               	movlw	16
  7476  01E4                     u1727:
  7477  01E4  0B89               	decfsz	9,f
  7478  01E5  29E4               	goto	u1727
  7479  01E6  3200               	nop2
  7480  01E7                     l144:
  7481  01E7  0008               	return
  7482  01E8                     __end_of_LCD_Write_4Bit:
  7483                           
  7484                           	psect	text19
  7485  01C0                     __ptext19:	
  7486 ;; *************** function _IO_Expander_Write *****************
  7487 ;; Defined at:
  7488 ;;		line 63 in file "mcc_generated_files/I2C_LCD.c"
  7489 ;; Parameters:    Size  Location     Type
  7490 ;;  Data            1    wreg     unsigned char 
  7491 ;; Auto vars:     Size  Location     Type
  7492 ;;  Data            1    1[COMMON] unsigned char 
  7493 ;; Return value:  Size  Location     Type
  7494 ;;                  1    wreg      void 
  7495 ;; Registers used:
  7496 ;;		wreg, status,2, status,0, pclath, cstack
  7497 ;; Tracked objects:
  7498 ;;		On entry : 0/0
  7499 ;;		On exit  : 0/0
  7500 ;;		Unchanged: 0/0
  7501 ;; Data sizes:     COMMON   BANK0   BANK1   BANK2   BANK3   BANK4   BANK5   BANK6   BANK7   BANK8   BANK9  BANK10  BANK1
      +1  BANK12
  7502 ;;      Params:         0       0       0       0       0       0       0       0       0       0       0       0       
      +0       0
  7503 ;;      Locals:         1       0       0       0       0       0       0       0       0       0       0       0       
      +0       0
  7504 ;;      Temps:          0       0       0       0       0       0       0       0       0       0       0       0       
      +0       0
  7505 ;;      Totals:         1       0       0       0       0       0       0       0       0       0       0       0       
      +0       0
  7506 ;;Total ram usage:        1 bytes
  7507 ;; Hardware stack levels used: 1
  7508 ;; Hardware stack levels required when called: 2
  7509 ;; This function calls:
  7510 ;;		_I2C_Master_Start
  7511 ;;		_I2C_Master_Stop
  7512 ;;		_I2C_Master_Write
  7513 ;; This function is called by:
  7514 ;;		_LCD_Init
  7515 ;;		_LCD_Write_4Bit
  7516 ;;		_Backlight
  7517 ;;		_noBacklight
  7518 ;; This function uses a non-reentrant model
  7519 ;;
  7520                           
  7521                           
  7522                           ;psect for function _IO_Expander_Write
  7523  01C0                     _IO_Expander_Write:
  7524                           
  7525                           ;incstack = 0
  7526                           ; Regs used in _IO_Expander_Write: [wreg+status,2+status,0+pclath+cstack]
  7527                           ;IO_Expander_Write@Data stored from wreg
  7528  01C0  00F1               	movwf	IO_Expander_Write@Data
  7529  01C1                     l1696:
  7530                           
  7531                           ;mcc_generated_files/I2C_LCD.c: 63: void IO_Expander_Write(unsigned char Data);mcc_gener
      +                          ated_files/I2C_LCD.c: 64: {;mcc_generated_files/I2C_LCD.c: 65:   I2C_Master_Start();
  7532  01C1  3181  2126  3181   	fcall	_I2C_Master_Start
  7533                           
  7534                           ;mcc_generated_files/I2C_LCD.c: 66:   I2C_Master_Write(i2c_add);
  7535  01C4  0020               	movlb	0	; select bank0
  7536  01C5  0832               	movf	_i2c_add,w
  7537  01C6  3181  21A0  3181   	fcall	_I2C_Master_Write
  7538                           
  7539                           ;mcc_generated_files/I2C_LCD.c: 67:   I2C_Master_Write(Data | BackLight_State);
  7540  01C9  0871               	movf	IO_Expander_Write@Data,w
  7541  01CA  0020               	movlb	0	; select bank0
  7542  01CB  0435               	iorwf	_BackLight_State,w
  7543  01CC  3181  21A0  3181   	fcall	_I2C_Master_Write
  7544                           
  7545                           ;mcc_generated_files/I2C_LCD.c: 68:   I2C_Master_Stop();
  7546  01CF  3181  212C  3181   	fcall	_I2C_Master_Stop
  7547  01D2                     l141:
  7548  01D2  0008               	return
  7549  01D3                     __end_of_IO_Expander_Write:
  7550                           
  7551                           	psect	text20
  7552  01A0                     __ptext20:	
  7553 ;; *************** function _I2C_Master_Write *****************
  7554 ;; Defined at:
  7555 ;;		line 29 in file "mcc_generated_files/I2C_LCD.c"
  7556 ;; Parameters:    Size  Location     Type
  7557 ;;  data            1    wreg     unsigned char 
  7558 ;; Auto vars:     Size  Location     Type
  7559 ;;  data            1    0[COMMON] unsigned char 
  7560 ;; Return value:  Size  Location     Type
  7561 ;;                  1    wreg      unsigned char 
  7562 ;; Registers used:
  7563 ;;		wreg, status,2, status,0, pclath, cstack
  7564 ;; Tracked objects:
  7565 ;;		On entry : 0/0
  7566 ;;		On exit  : 0/0
  7567 ;;		Unchanged: 0/0
  7568 ;; Data sizes:     COMMON   BANK0   BANK1   BANK2   BANK3   BANK4   BANK5   BANK6   BANK7   BANK8   BANK9  BANK10  BANK1
      +1  BANK12
  7569 ;;      Params:         0       0       0       0       0       0       0       0       0       0       0       0       
      +0       0
  7570 ;;      Locals:         1       0       0       0       0       0       0       0       0       0       0       0       
      +0       0
  7571 ;;      Temps:          0       0       0       0       0       0       0       0       0       0       0       0       
      +0       0
  7572 ;;      Totals:         1       0       0       0       0       0       0       0       0       0       0       0       
      +0       0
  7573 ;;Total ram usage:        1 bytes
  7574 ;; Hardware stack levels used: 1
  7575 ;; Hardware stack levels required when called: 1
  7576 ;; This function calls:
  7577 ;;		_I2C_Master_Wait
  7578 ;; This function is called by:
  7579 ;;		_IO_Expander_Write
  7580 ;; This function uses a non-reentrant model
  7581 ;;
  7582                           
  7583                           
  7584                           ;psect for function _I2C_Master_Write
  7585  01A0                     _I2C_Master_Write:
  7586                           
  7587                           ;incstack = 0
  7588                           ; Regs used in _I2C_Master_Write: [wreg+status,2+status,0+pclath+cstack]
  7589                           ;I2C_Master_Write@data stored from wreg
  7590  01A0  00F0               	movwf	I2C_Master_Write@data
  7591  01A1                     l1688:
  7592                           
  7593                           ;mcc_generated_files/I2C_LCD.c: 29: unsigned char I2C_Master_Write(unsigned char data);m
      +                          cc_generated_files/I2C_LCD.c: 30: {;mcc_generated_files/I2C_LCD.c: 31:   I2C_Master_Wait
      +                          ();
  7594  01A1  3181  2168  3181   	fcall	_I2C_Master_Wait
  7595  01A4                     l1690:
  7596                           
  7597                           ;mcc_generated_files/I2C_LCD.c: 32:   SSP1BUF = data;
  7598  01A4  0870               	movf	I2C_Master_Write@data,w
  7599  01A5  0024               	movlb	4	; select bank4
  7600  01A6  0091               	movwf	17	;volatile
  7601  01A7                     l132:	
  7602                           ;mcc_generated_files/I2C_LCD.c: 33:   while(!PIR1bits.SSP1IF);
  7603                           
  7604  01A7  0020               	movlb	0	; select bank0
  7605  01A8  1D90               	btfss	16,3	;volatile
  7606  01A9  29AB               	goto	u721
  7607  01AA  29AC               	goto	u720
  7608  01AB                     u721:
  7609  01AB  29A7               	goto	l132
  7610  01AC                     u720:
  7611  01AC                     l134:
  7612                           
  7613                           ;mcc_generated_files/I2C_LCD.c: 34:   PIR1bits.SSP1IF = 0;
  7614  01AC  1190               	bcf	16,3	;volatile
  7615  01AD                     l1692:
  7616                           
  7617                           ;mcc_generated_files/I2C_LCD.c: 35:   return SSP1CON2bits.ACKSTAT;;	Return value of _I2C
      +                          _Master_Write is never used
  7618  01AD  0024               	movlb	4	; select bank4
  7619  01AE  0816               	movf	22,w	;volatile
  7620  01AF                     l135:
  7621  01AF  0008               	return
  7622  01B0                     __end_of_I2C_Master_Write:
  7623                           
  7624                           	psect	text21
  7625  012C                     __ptext21:	
  7626 ;; *************** function _I2C_Master_Stop *****************
  7627 ;; Defined at:
  7628 ;;		line 24 in file "mcc_generated_files/I2C_LCD.c"
  7629 ;; Parameters:    Size  Location     Type
  7630 ;;		None
  7631 ;; Auto vars:     Size  Location     Type
  7632 ;;		None
  7633 ;; Return value:  Size  Location     Type
  7634 ;;                  1    wreg      void 
  7635 ;; Registers used:
  7636 ;;		wreg, status,2, status,0, pclath, cstack
  7637 ;; Tracked objects:
  7638 ;;		On entry : 0/0
  7639 ;;		On exit  : 0/0
  7640 ;;		Unchanged: 0/0
  7641 ;; Data sizes:     COMMON   BANK0   BANK1   BANK2   BANK3   BANK4   BANK5   BANK6   BANK7   BANK8   BANK9  BANK10  BANK1
      +1  BANK12
  7642 ;;      Params:         0       0       0       0       0       0       0       0       0       0       0       0       
      +0       0
  7643 ;;      Locals:         0       0       0       0       0       0       0       0       0       0       0       0       
      +0       0
  7644 ;;      Temps:          0       0       0       0       0       0       0       0       0       0       0       0       
      +0       0
  7645 ;;      Totals:         0       0       0       0       0       0       0       0       0       0       0       0       
      +0       0
  7646 ;;Total ram usage:        0 bytes
  7647 ;; Hardware stack levels used: 1
  7648 ;; Hardware stack levels required when called: 1
  7649 ;; This function calls:
  7650 ;;		_I2C_Master_Wait
  7651 ;; This function is called by:
  7652 ;;		_IO_Expander_Write
  7653 ;; This function uses a non-reentrant model
  7654 ;;
  7655                           
  7656                           
  7657                           ;psect for function _I2C_Master_Stop
  7658  012C                     _I2C_Master_Stop:
  7659  012C                     l1684:	
  7660                           ;incstack = 0
  7661                           ; Regs used in _I2C_Master_Stop: [wreg+status,2+status,0+pclath+cstack]
  7662                           
  7663                           
  7664                           ;mcc_generated_files/I2C_LCD.c: 26:   I2C_Master_Wait();
  7665  012C  3181  2168  3181   	fcall	_I2C_Master_Wait
  7666  012F                     l1686:
  7667                           
  7668                           ;mcc_generated_files/I2C_LCD.c: 27:   SSP1CON2bits.PEN = 1;
  7669  012F  0024               	movlb	4	; select bank4
  7670  0130  1516               	bsf	22,2	;volatile
  7671  0131                     l129:
  7672  0131  0008               	return
  7673  0132                     __end_of_I2C_Master_Stop:
  7674                           
  7675                           	psect	text22
  7676  0126                     __ptext22:	
  7677 ;; *************** function _I2C_Master_Start *****************
  7678 ;; Defined at:
  7679 ;;		line 19 in file "mcc_generated_files/I2C_LCD.c"
  7680 ;; Parameters:    Size  Location     Type
  7681 ;;		None
  7682 ;; Auto vars:     Size  Location     Type
  7683 ;;		None
  7684 ;; Return value:  Size  Location     Type
  7685 ;;                  1    wreg      void 
  7686 ;; Registers used:
  7687 ;;		wreg, status,2, status,0, pclath, cstack
  7688 ;; Tracked objects:
  7689 ;;		On entry : 0/0
  7690 ;;		On exit  : 0/0
  7691 ;;		Unchanged: 0/0
  7692 ;; Data sizes:     COMMON   BANK0   BANK1   BANK2   BANK3   BANK4   BANK5   BANK6   BANK7   BANK8   BANK9  BANK10  BANK1
      +1  BANK12
  7693 ;;      Params:         0       0       0       0       0       0       0       0       0       0       0       0       
      +0       0
  7694 ;;      Locals:         0       0       0       0       0       0       0       0       0       0       0       0       
      +0       0
  7695 ;;      Temps:          0       0       0       0       0       0       0       0       0       0       0       0       
      +0       0
  7696 ;;      Totals:         0       0       0       0       0       0       0       0       0       0       0       0       
      +0       0
  7697 ;;Total ram usage:        0 bytes
  7698 ;; Hardware stack levels used: 1
  7699 ;; Hardware stack levels required when called: 1
  7700 ;; This function calls:
  7701 ;;		_I2C_Master_Wait
  7702 ;; This function is called by:
  7703 ;;		_IO_Expander_Write
  7704 ;; This function uses a non-reentrant model
  7705 ;;
  7706                           
  7707                           
  7708                           ;psect for function _I2C_Master_Start
  7709  0126                     _I2C_Master_Start:
  7710  0126                     l1680:	
  7711                           ;incstack = 0
  7712                           ; Regs used in _I2C_Master_Start: [wreg+status,2+status,0+pclath+cstack]
  7713                           
  7714                           
  7715                           ;mcc_generated_files/I2C_LCD.c: 21:   I2C_Master_Wait();
  7716  0126  3181  2168  3181   	fcall	_I2C_Master_Wait
  7717  0129                     l1682:
  7718                           
  7719                           ;mcc_generated_files/I2C_LCD.c: 22:   SSP1CON2bits.SEN = 1;
  7720  0129  0024               	movlb	4	; select bank4
  7721  012A  1416               	bsf	22,0	;volatile
  7722  012B                     l126:
  7723  012B  0008               	return
  7724  012C                     __end_of_I2C_Master_Start:
  7725                           
  7726                           	psect	text23
  7727  0168                     __ptext23:	
  7728 ;; *************** function _I2C_Master_Wait *****************
  7729 ;; Defined at:
  7730 ;;		line 15 in file "mcc_generated_files/I2C_LCD.c"
  7731 ;; Parameters:    Size  Location     Type
  7732 ;;		None
  7733 ;; Auto vars:     Size  Location     Type
  7734 ;;		None
  7735 ;; Return value:  Size  Location     Type
  7736 ;;                  1    wreg      void 
  7737 ;; Registers used:
  7738 ;;		wreg, status,2
  7739 ;; Tracked objects:
  7740 ;;		On entry : 0/0
  7741 ;;		On exit  : 0/0
  7742 ;;		Unchanged: 0/0
  7743 ;; Data sizes:     COMMON   BANK0   BANK1   BANK2   BANK3   BANK4   BANK5   BANK6   BANK7   BANK8   BANK9  BANK10  BANK1
      +1  BANK12
  7744 ;;      Params:         0       0       0       0       0       0       0       0       0       0       0       0       
      +0       0
  7745 ;;      Locals:         0       0       0       0       0       0       0       0       0       0       0       0       
      +0       0
  7746 ;;      Temps:          0       0       0       0       0       0       0       0       0       0       0       0       
      +0       0
  7747 ;;      Totals:         0       0       0       0       0       0       0       0       0       0       0       0       
      +0       0
  7748 ;;Total ram usage:        0 bytes
  7749 ;; Hardware stack levels used: 1
  7750 ;; This function calls:
  7751 ;;		Nothing
  7752 ;; This function is called by:
  7753 ;;		_I2C_Master_Start
  7754 ;;		_I2C_Master_Stop
  7755 ;;		_I2C_Master_Write
  7756 ;; This function uses a non-reentrant model
  7757 ;;
  7758                           
  7759                           
  7760                           ;psect for function _I2C_Master_Wait
  7761  0168                     _I2C_Master_Wait:
  7762  0168                     l1676:	
  7763                           ;incstack = 0
  7764                           ; Regs used in _I2C_Master_Wait: [wreg+status,2]
  7765                           
  7766  0168                     l120:	
  7767                           ;mcc_generated_files/I2C_LCD.c: 17:   while ((SSP1STAT & 0x04) || (SSP1CON2 & 0x1F));
  7768                           
  7769  0168  0024               	movlb	4	; select bank4
  7770  0169  1914               	btfsc	20,2	;volatile
  7771  016A  296C               	goto	u701
  7772  016B  296D               	goto	u700
  7773  016C                     u701:
  7774  016C  2968               	goto	l120
  7775  016D                     u700:
  7776  016D                     l1678:
  7777  016D  0816               	movf	22,w	;volatile
  7778  016E  391F               	andlw	31
  7779  016F  1D03               	btfss	3,2
  7780  0170  2972               	goto	u711
  7781  0171  2973               	goto	u710
  7782  0172                     u711:
  7783  0172  2968               	goto	l120
  7784  0173                     u710:
  7785  0173                     l123:
  7786  0173  0008               	return
  7787  0174                     __end_of_I2C_Master_Wait:
  7788                           
  7789                           	psect	text24
  7790  0191                     __ptext24:	
  7791 ;; *************** function _EUSART_is_tx_ready *****************
  7792 ;; Defined at:
  7793 ;;		line 94 in file "mcc_generated_files/eusart.c"
  7794 ;; Parameters:    Size  Location     Type
  7795 ;;		None
  7796 ;; Auto vars:     Size  Location     Type
  7797 ;;		None
  7798 ;; Return value:  Size  Location     Type
  7799 ;;                  1    wreg      _Bool 
  7800 ;; Registers used:
  7801 ;;		wreg, status,2
  7802 ;; Tracked objects:
  7803 ;;		On entry : 0/0
  7804 ;;		On exit  : 0/0
  7805 ;;		Unchanged: 0/0
  7806 ;; Data sizes:     COMMON   BANK0   BANK1   BANK2   BANK3   BANK4   BANK5   BANK6   BANK7   BANK8   BANK9  BANK10  BANK1
      +1  BANK12
  7807 ;;      Params:         0       0       0       0       0       0       0       0       0       0       0       0       
      +0       0
  7808 ;;      Locals:         1       0       0       0       0       0       0       0       0       0       0       0       
      +0       0
  7809 ;;      Temps:          0       0       0       0       0       0       0       0       0       0       0       0       
      +0       0
  7810 ;;      Totals:         1       0       0       0       0       0       0       0       0       0       0       0       
      +0       0
  7811 ;;Total ram usage:        1 bytes
  7812 ;; Hardware stack levels used: 1
  7813 ;; This function calls:
  7814 ;;		Nothing
  7815 ;; This function is called by:
  7816 ;;		_main
  7817 ;; This function uses a non-reentrant model
  7818 ;;
  7819                           
  7820                           
  7821                           ;psect for function _EUSART_is_tx_ready
  7822  0191                     _EUSART_is_tx_ready:
  7823  0191                     l2096:	
  7824                           ;incstack = 0
  7825                           ; Regs used in _EUSART_is_tx_ready: [wreg+status,2]
  7826                           
  7827                           
  7828                           ;mcc_generated_files/eusart.c: 96:     return (_Bool)(PIR1bits.TXIF && TX1STAbits.TXEN);
  7829  0191  01F0               	clrf	_EUSART_is_tx_ready$474
  7830  0192                     l2098:
  7831  0192  0020               	movlb	0	; select bank0
  7832  0193  1E10               	btfss	16,4	;volatile
  7833  0194  2996               	goto	u1251
  7834  0195  2997               	goto	u1250
  7835  0196                     u1251:
  7836  0196  299E               	goto	l2104
  7837  0197                     u1250:
  7838  0197                     l2100:
  7839  0197  0023               	movlb	3	; select bank3
  7840  0198  1E9E               	btfss	30,5	;volatile
  7841  0199  299B               	goto	u1261
  7842  019A  299C               	goto	u1260
  7843  019B                     u1261:
  7844  019B  299E               	goto	l2104
  7845  019C                     u1260:
  7846  019C                     l2102:
  7847  019C  01F0               	clrf	_EUSART_is_tx_ready$474
  7848  019D  0AF0               	incf	_EUSART_is_tx_ready$474,f
  7849  019E                     l2104:
  7850  019E  0870               	movf	_EUSART_is_tx_ready$474,w
  7851  019F                     l329:
  7852  019F  0008               	return
  7853  01A0                     __end_of_EUSART_is_tx_ready:
  7854                           
  7855                           	psect	text25
  7856  014B                     __ptext25:	
  7857 ;; *************** function _EUSART_Write *****************
  7858 ;; Defined at:
  7859 ;;		line 132 in file "mcc_generated_files/eusart.c"
  7860 ;; Parameters:    Size  Location     Type
  7861 ;;  txData          1    0[COMMON] unsigned char 
  7862 ;; Auto vars:     Size  Location     Type
  7863 ;;		None
  7864 ;; Return value:  Size  Location     Type
  7865 ;;                  1    wreg      void 
  7866 ;; Registers used:
  7867 ;;		wreg
  7868 ;; Tracked objects:
  7869 ;;		On entry : 0/0
  7870 ;;		On exit  : 0/0
  7871 ;;		Unchanged: 0/0
  7872 ;; Data sizes:     COMMON   BANK0   BANK1   BANK2   BANK3   BANK4   BANK5   BANK6   BANK7   BANK8   BANK9  BANK10  BANK1
      +1  BANK12
  7873 ;;      Params:         1       0       0       0       0       0       0       0       0       0       0       0       
      +0       0
  7874 ;;      Locals:         0       0       0       0       0       0       0       0       0       0       0       0       
      +0       0
  7875 ;;      Temps:          0       0       0       0       0       0       0       0       0       0       0       0       
      +0       0
  7876 ;;      Totals:         1       0       0       0       0       0       0       0       0       0       0       0       
      +0       0
  7877 ;;Total ram usage:        1 bytes
  7878 ;; Hardware stack levels used: 1
  7879 ;; This function calls:
  7880 ;;		Nothing
  7881 ;; This function is called by:
  7882 ;;		_main
  7883 ;; This function uses a non-reentrant model
  7884 ;;
  7885                           
  7886                           
  7887                           ;psect for function _EUSART_Write
  7888  014B                     _EUSART_Write:
  7889  014B                     l2120:	
  7890                           ;incstack = 0
  7891                           ; Regs used in _EUSART_Write: [wreg]
  7892                           
  7893  014B                     l348:	
  7894                           ;mcc_generated_files/eusart.c: 135:     {;mcc_generated_files/eusart.c: 136:     }
  7895                           
  7896                           
  7897                           ;mcc_generated_files/eusart.c: 134:     while(0 == PIR1bits.TXIF)
  7898  014B  0020               	movlb	0	; select bank0
  7899  014C  1E10               	btfss	16,4	;volatile
  7900  014D  294F               	goto	u1291
  7901  014E  2950               	goto	u1290
  7902  014F                     u1291:
  7903  014F  294B               	goto	l348
  7904  0150                     u1290:
  7905  0150                     l2122:
  7906                           
  7907                           ;mcc_generated_files/eusart.c: 138:     TX1REG = txData;
  7908  0150  0870               	movf	EUSART_Write@txData,w
  7909  0151  0023               	movlb	3	; select bank3
  7910  0152  009A               	movwf	26	;volatile
  7911  0153                     l351:
  7912  0153  0008               	return
  7913  0154                     __end_of_EUSART_Write:
  7914                           
  7915                           	psect	text26
  7916  0182                     __ptext26:	
  7917 ;; *************** function _EUSART_Read *****************
  7918 ;; Defined at:
  7919 ;;		line 113 in file "mcc_generated_files/eusart.c"
  7920 ;; Parameters:    Size  Location     Type
  7921 ;;		None
  7922 ;; Auto vars:     Size  Location     Type
  7923 ;;		None
  7924 ;; Return value:  Size  Location     Type
  7925 ;;                  1    wreg      unsigned char 
  7926 ;; Registers used:
  7927 ;;		wreg, status,2
  7928 ;; Tracked objects:
  7929 ;;		On entry : 0/0
  7930 ;;		On exit  : 0/0
  7931 ;;		Unchanged: 0/0
  7932 ;; Data sizes:     COMMON   BANK0   BANK1   BANK2   BANK3   BANK4   BANK5   BANK6   BANK7   BANK8   BANK9  BANK10  BANK1
      +1  BANK12
  7933 ;;      Params:         0       0       0       0       0       0       0       0       0       0       0       0       
      +0       0
  7934 ;;      Locals:         0       0       0       0       0       0       0       0       0       0       0       0       
      +0       0
  7935 ;;      Temps:          0       0       0       0       0       0       0       0       0       0       0       0       
      +0       0
  7936 ;;      Totals:         0       0       0       0       0       0       0       0       0       0       0       0       
      +0       0
  7937 ;;Total ram usage:        0 bytes
  7938 ;; Hardware stack levels used: 1
  7939 ;; This function calls:
  7940 ;;		Nothing
  7941 ;; This function is called by:
  7942 ;;		_main
  7943 ;; This function uses a non-reentrant model
  7944 ;;
  7945                           
  7946                           
  7947                           ;psect for function _EUSART_Read
  7948  0182                     _EUSART_Read:
  7949  0182                     l2108:	
  7950                           ;incstack = 0
  7951                           ; Regs used in _EUSART_Read: [wreg+status,2]
  7952                           
  7953  0182                     l341:	
  7954                           ;mcc_generated_files/eusart.c: 116:     {;mcc_generated_files/eusart.c: 117:     }
  7955                           
  7956                           
  7957                           ;mcc_generated_files/eusart.c: 115:     while(!PIR1bits.RCIF)
  7958  0182  0020               	movlb	0	; select bank0
  7959  0183  1E90               	btfss	16,5	;volatile
  7960  0184  2986               	goto	u1271
  7961  0185  2987               	goto	u1270
  7962  0186                     u1271:
  7963  0186  2982               	goto	l341
  7964  0187                     u1270:
  7965  0187                     l2110:
  7966                           
  7967                           ;mcc_generated_files/eusart.c: 119:     eusartRxLastError.status = 0;
  7968  0187  01A7               	clrf	_eusartRxLastError	;volatile
  7969  0188                     l2112:
  7970                           
  7971                           ;mcc_generated_files/eusart.c: 121:     if(1 == RC1STAbits.OERR)
  7972  0188  0023               	movlb	3	; select bank3
  7973  0189  1C9D               	btfss	29,1	;volatile
  7974  018A  298C               	goto	u1281
  7975  018B  298D               	goto	u1280
  7976  018C                     u1281:
  7977  018C  298F               	goto	l2116
  7978  018D                     u1280:
  7979  018D                     l2114:
  7980                           
  7981                           ;mcc_generated_files/eusart.c: 122:     {;mcc_generated_files/eusart.c: 125:         RC1
      +                          STAbits.CREN = 0;
  7982  018D  121D               	bcf	29,4	;volatile
  7983                           
  7984                           ;mcc_generated_files/eusart.c: 126:         RC1STAbits.CREN = 1;
  7985  018E  161D               	bsf	29,4	;volatile
  7986  018F                     l2116:
  7987                           
  7988                           ;mcc_generated_files/eusart.c: 129:     return RC1REG;
  7989  018F  0819               	movf	25,w	;volatile
  7990  0190                     l345:
  7991  0190  0008               	return
  7992  0191                     __end_of_EUSART_Read:
  7993  007E                     btemp	set	126	;btemp
  7994  007E                     wtemp0	set	126
  7995                           
  7996                           	psect	config
  7997                           
  7998                           ;Config register CONFIG1 @ 0x8007
  7999                           ;	Oscillator Selection Bits
  8000                           ;	FOSC = INTOSC, INTOSC oscillator: I/O function on CLKIN pin
  8001                           ;	Power-up Timer Enable
  8002                           ;	PWRTE = OFF, PWRT disabled
  8003                           ;	MCLR Pin Function Select
  8004                           ;	MCLRE = ON, MCLR/VPP pin function is MCLR
  8005                           ;	Flash Program Memory Code Protection
  8006                           ;	CP = OFF, Program memory code protection is disabled
  8007                           ;	Brown-out Reset Enable
  8008                           ;	BOREN = ON, Brown-out Reset enabled
  8009                           ;	Clock Out Enable
  8010                           ;	CLKOUTEN = OFF, CLKOUT function is disabled. I/O or oscillator function on the CLKOUT 
      +                          pin
  8011                           ;	Internal/External Switch Over
  8012                           ;	IESO = ON, Internal External Switch Over mode is enabled
  8013                           ;	Fail-Safe Clock Monitor Enable
  8014                           ;	FCMEN = ON, Fail-Safe Clock Mo  8015  8007                     	org	32775
  8016  8007  3FFC               	dw	16380
  8017                           
  8018                           ;Config register CONFIG2 @ 0x8008
  8019                           ;	Flash Memory Self-Write Protection
  8020                           ;	WRT = OFF, Write protection off
  8021                           ;	Peripheral Pin Select one-way control
  8022                           ;	PPS1WAY = ON, The PPSLOCK bit cannot be cleared once it is set by software
  8023                           ;	Zero Cross Detect Disable Bit
  8024                           ;	ZCD = OFF, ZCD disable.  ZCD can be enabled by setting the ZCDSEN bit of ZCDCON
  8025                           ;	PLL Enable Bit
  8026                           ;	PLLEN = OFF, 4x PLL is enabled when software sets the SPLLEN bit
  8027                           ;	Stack Overflow/Underflow Reset Enable
  8028                           ;	STVREN = ON, Stack Overflow or Underflow will cause a Reset
  8029                           ;	Brown-out Reset Voltage Selection
  8030                           ;	BORV = LO, Brown-out Reset Voltage (Vbor), low trip point selected.
  8031                           ;	Low-Power Brown Out Reset
  8032                           ;	LPBOR = OFF, Low-Power BOR is disabled
  8033                           ;	Low-Voltage Programming Enable
  8034                           ;	LVP = ON, Low-voltage programming enabled
  8035  8008                     	org	32776
  8036  8008  3EFF               	dw	16127
  8037                           
  8038                           ;Config register CONFIG3 @ 0x8009
  8039                           ;	WDT Period Select
  8040                           ;	WDTCPS = WDTCPS1F, Software Control (WDTPS)
  8041                           ;	Watchdog Timer Enable
  8042                           ;	WDTE = OFF, WDT disabled
  8043                           ;	WDT Window Select
  8044                           ;	WDTCWS = WDTCWSSW, Software WDT window size control (WDTWS bits)
  8045                           ;	WDT Input Clock Selector
  8046                           ;	WDTCCS = SWC, Software control, controlled by WDTCS bits
  8047  8009                     	org	32777
  8048  8009  3F9F               	dw	16287

Data Sizes:
    Strings     226
    Constant    12
    Data        4
    BSS         11
    Persistent  40
    Stack       0

Auto Spaces:
    Space          Size  Autos    Used
    COMMON           14     13      14
    BANK0            80      0      22
    BANK1            80      0       0
    BANK2            80      0       0
    BANK3            80      0       0
    BANK4            80      0       0
    BANK5            80      0       0
    BANK6            80      0       0
    BANK7            80      0       0
    BANK8            80      0       0
    BANK9            80      0       0
    BANK10           80      0       0
    BANK11           80      0       0
    BANK12           48      0       0

Pointer List with Targets:

    S610$Initialize	PTR FTN()void  size(2) Largest target is 1
		 -> EUSART_Initialize(), 

    uart.Initialize	PTR FTN()void  size(2) Largest target is 1
		 -> EUSART_Initialize(), 

    S610$TransmitDone	PTR FTN()_Bool  size(2) Largest target is 1
		 -> EUSART_is_tx_done(), 

    uart.TransmitDone	PTR FTN()_Bool  size(2) Largest target is 1
		 -> EUSART_is_tx_done(), 

    S610$DataReady	PTR FTN()_Bool  size(2) Largest target is 1
		 -> EUSART_is_rx_ready(), 

    uart.DataReady	PTR FTN()_Bool  size(2) Largest target is 1
		 -> EUSART_is_rx_ready(), 

    S610$TransmitReady	PTR FTN()_Bool  size(2) Largest target is 1
		 -> EUSART_is_tx_ready(), 

    uart.TransmitReady	PTR FTN()_Bool  size(2) Largest target is 1
		 -> EUSART_is_tx_ready(), 

    S610$Write	PTR FTN(unsigned char ,)void  size(2) Largest target is 1
		 -> EUSART_Write(), 

    uart.Write	PTR FTN(unsigned char ,)void  size(2) Largest target is 1
		 -> EUSART_Write(), 

    S610$Read	PTR FTN()unsigned char  size(2) Largest target is 1
		 -> EUSART_Read(), 

    uart.Read	PTR FTN()unsigned char  size(2) Largest target is 1
		 -> EUSART_Read(), 

    EUSART_SetErrorHandler@interruptHandler	PTR FTN()void  size(2) Largest target is 1
		 -> EUSART_DefaultErrorHandler(), 

    EUSART_ErrorHandler	PTR FTN()void  size(2) Largest target is 1
		 -> Absolute function(), EUSART_DefaultErrorHandler(), 

    EUSART_SetOverrunErrorHandler@interruptHandler	PTR FTN()void  size(2) Largest target is 1
		 -> EUSART_DefaultOverrunErrorHandler(), 

    EUSART_OverrunErrorHandler	PTR FTN()void  size(2) Largest target is 1
		 -> Absolute function(), EUSART_DefaultOverrunErrorHandler(), 

    EUSART_SetFramingErrorHandler@interruptHandler	PTR FTN()void  size(2) Largest target is 1
		 -> EUSART_DefaultFramingErrorHandler(), 

    EUSART_FramingErrorHandler	PTR FTN()void  size(2) Largest target is 1
		 -> Absolute function(), EUSART_DefaultFramingErrorHandler(), 

    keypad_scanner@val_o	PTR unsigned int  size(1) Largest target is 2
		 -> Val(BANK0[2]), switch_press_scan@val(COMMON[2]), 

    keypad_scanner@key_o	PTR unsigned char  size(1) Largest target is 1
		 -> Key(COMMON[1]), switch_press_scan@key(COMMON[1]), 

    switch_press_scan@val_o	PTR unsigned int  size(1) Largest target is 2
		 -> Val(BANK0[2]), 

    switch_press_scan@key_o	PTR unsigned char  size(1) Largest target is 1
		 -> Key(COMMON[1]), 

    LCD_Write_String@Str	PTR unsigned char  size(2) Largest target is 17
		 -> STR_20(CODE[15]), STR_19(CODE[16]), STR_18(CODE[13]), STR_17(CODE[13]), 
		 -> STR_16(CODE[14]), STR_15(CODE[13]), STR_14(CODE[16]), STR_13(CODE[15]), 
		 -> STR_12(CODE[16]), STR_11(CODE[17]), STR_10(CODE[15]), STR_9(CODE[16]), 
		 -> STR_8(CODE[12]), STR_7(CODE[13]), STR_6(CODE[17]), STR_5(CODE[15]), 
		 -> STR_4(CODE[17]), STR_3(CODE[15]), STR_2(CODE[15]), STR_1(CODE[17]), 


Critical Paths under _main in COMMON

    _main->_LCD_Write_String
    _switch_press_scan->_keypad_scanner
    _EUSART_Initialize->_EUSART_SetErrorHandler
    _EUSART_Initialize->_EUSART_SetFramingErrorHandler
    _EUSART_Initialize->_EUSART_SetOverrunErrorHandler
    _LCD_Write_String->_LCD_Write_Char
    _LCD_Write_Char->_LCD_Write_4Bit
    _LCD_Set_Cursor->_LCD_CMD
    _LCD_Init->_LCD_CMD
    _LCD_Clear->_LCD_CMD
    _LCD_CMD->_LCD_Write_4Bit
    _LCD_Write_4Bit->_IO_Expander_Write
    _IO_Expander_Write->_I2C_Master_Write

Critical Paths under _main in BANK0

    None.

Critical Paths under _main in BANK1

    None.

Critical Paths under _main in BANK2

    None.

Critical Paths under _main in BANK3

    None.

Critical Paths under _main in BANK4

    None.

Critical Paths under _main in BANK5

    None.

Critical Paths under _main in BANK6

    None.

Critical Paths under _main in BANK7

    None.

Critical Paths under _main in BANK8

    None.

Critical Paths under _main in BANK9

    None.

Critical Paths under _main in BANK10

    None.

Critical Paths under _main in BANK11

    None.

Critical Paths under _main in BANK12

    None.

Call Graph Tables:

 ---------------------------------------------------------------------------------
 (Depth) Function   	        Calls       Base Space   Used Autos Params    Refs
 ---------------------------------------------------------------------------------
 (0) _main                                                 2     2      0    7098
                                             11 COMMON     2     2      0
                        _EUSART_Read
                       _EUSART_Write
                 _EUSART_is_tx_ready
                    _I2C_Master_Init
                          _LCD_Clear
                           _LCD_Init
                     _LCD_Set_Cursor
                     _LCD_Write_Char
                   _LCD_Write_String
                  _SYSTEM_Initialize
                     _keypad_scanner
                  _switch_press_scan
 ---------------------------------------------------------------------------------
 (1) _switch_press_scan                                    6     5      1    1408
                                              3 COMMON     6     5      1
                     _keypad_scanner
 ---------------------------------------------------------------------------------
 (2) _keypad_scanner                                       3     2      1    1075
                                              0 COMMON     3     2      1
 ---------------------------------------------------------------------------------
 (1) _SYSTEM_Initialize                                    0     0      0     294
                  _EUSART_Initialize
                    _I2C_Master_Init
              _OSCILLATOR_Initialize
             _PIN_MANAGER_Initialize
                    _TMR0_Initialize
 ---------------------------------------------------------------------------------
 (2) _TMR0_Initialize                                      1     1      0       0
                                              0 COMMON     1     1      0
 ---------------------------------------------------------------------------------
 (2) _PIN_MANAGER_Initialize                               0     0      0       0
 ---------------------------------------------------------------------------------
 (2) _OSCILLATOR_Initialize                                0     0      0       0
 ---------------------------------------------------------------------------------
 (2) _I2C_Master_Init                                      0     0      0       0
 ---------------------------------------------------------------------------------
 (2) _EUSART_Initialize                                    0     0      0     294
             _EUSART_SetErrorHandler
      _EUSART_SetFramingErrorHandler
      _EUSART_SetOverrunErrorHandler
 ---------------------------------------------------------------------------------
 (3) _EUSART_SetOverrunErrorHandler                        2     0      2      98
                                              0 COMMON     2     0      2
 ---------------------------------------------------------------------------------
 (3) _EUSART_SetFramingErrorHandler                        2     0      2      98
                                              0 COMMON     2     0      2
 ---------------------------------------------------------------------------------
 (3) _EUSART_SetErrorHandler                               2     0      2      98
                                              0 COMMON     2     0      2
 ---------------------------------------------------------------------------------
 (1) _LCD_Write_String                                     5     3      2    1743
                                              6 COMMON     5     3      2
                     _LCD_Write_Char
 ---------------------------------------------------------------------------------
 (2) _LCD_Write_Char                                       2     2      0     133
                                              4 COMMON     2     2      0
                     _LCD_Write_4Bit
 ---------------------------------------------------------------------------------
 (1) _LCD_Set_Cursor                                       4     3      1    1839
                                              6 COMMON     4     3      1
                            _LCD_CMD
 ---------------------------------------------------------------------------------
 (1) _LCD_Init                                             2     2      0     199
                                              6 COMMON     2     2      0
                  _IO_Expander_Write
                            _LCD_CMD
 ---------------------------------------------------------------------------------
 (1) _LCD_Clear                                            0     0      0     133
                            _LCD_CMD
 ---------------------------------------------------------------------------------
 (2) _LCD_CMD                                              2     2      0     133
                                              4 COMMON     2     2      0
                     _LCD_Write_4Bit
 ---------------------------------------------------------------------------------
 (3) _LCD_Write_4Bit                                       2     2      0      89
                                              2 COMMON     2     2      0
                  _IO_Expander_Write
 ---------------------------------------------------------------------------------
 (4) _IO_Expander_Write                                    1     1      0      44
                                              1 COMMON     1     1      0
                   _I2C_Master_Start
                    _I2C_Master_Stop
                   _I2C_Master_Write
 ---------------------------------------------------------------------------------
 (5) _I2C_Master_Write                                     1     1      0      22
                                              0 COMMON     1     1      0
                    _I2C_Master_Wait
 ---------------------------------------------------------------------------------
 (5) _I2C_Master_Stop                                      0     0      0       0
                    _I2C_Master_Wait
 ---------------------------------------------------------------------------------
 (5) _I2C_Master_Start                                     0     0      0       0
                    _I2C_Master_Wait
 ---------------------------------------------------------------------------------
 (6) _I2C_Master_Wait                                      0     0      0       0
 ---------------------------------------------------------------------------------
 (1) _EUSART_is_tx_ready                                   1     1      0      24
                                              0 COMMON     1     1      0
 ---------------------------------------------------------------------------------
 (1) _EUSART_Write                                         1     0      1     250
                                              0 COMMON     1     0      1
 ---------------------------------------------------------------------------------
 (1) _EUSART_Read                                          0     0      0       0
 ---------------------------------------------------------------------------------
 Estimated maximum stack depth 6
 ---------------------------------------------------------------------------------

 Call Graph Graphs:

 _main (ROOT)
   _EUSART_Read
   _EUSART_Write
   _EUSART_is_tx_ready
   _I2C_Master_Init
   _LCD_Clear
     _LCD_CMD
       _LCD_Write_4Bit
         _IO_Expander_Write
           _I2C_Master_Start
             _I2C_Master_Wait
           _I2C_Master_Stop
             _I2C_Master_Wait
           _I2C_Master_Write
             _I2C_Master_Wait
   _LCD_Init
     _IO_Expander_Write
     _LCD_CMD
   _LCD_Set_Cursor
     _LCD_CMD
   _LCD_Write_Char
     _LCD_Write_4Bit
   _LCD_Write_String
     _LCD_Write_Char
   _SYSTEM_Initialize
     _EUSART_Initialize
       _EUSART_SetErrorHandler
       _EUSART_SetFramingErrorHandler
       _EUSART_SetOverrunErrorHandler
     _I2C_Master_Init
     _OSCILLATOR_Initialize
     _PIN_MANAGER_Initialize
     _TMR0_Initialize
   _keypad_scanner
   _switch_press_scan
     _keypad_scanner

 Address spaces:
Name               Size   Autos  Total    Cost      Usage
BIGRAM             3F0      0       0       0        0.0%
NULL                 0      0       0       0        0.0%
CODE                 0      0       0       0        0.0%
BITCOMMON            E      0       0       1        0.0%
BITSFR0              0      0       0       1        0.0%
SFR0                 0      0       0       1        0.0%
COMMON               E      D       E       2      100.0%
BITSFR1              0      0       0       2        0.0%
SFR1                 0      0       0       2        0.0%
BITSFR2              0      0       0       3        0.0%
SFR2                 0      0       0       3        0.0%
STACK                0      0       0       3        0.0%
BITBANK0            50      0       0       4        0.0%
BITSFR3              0      0       0       4        0.0%
SFR3                 0      0       0       4        0.0%
BANK0               50      0      16       5       27.5%
BITSFR4              0      0       0       5        0.0%
SFR4                 0      0       0       5        0.0%
BITBANK1            50      0       0       6        0.0%
BITSFR5              0      0       0       6        0.0%
SFR5                 0      0       0       6        0.0%
BANK1               50      0       0       7        0.0%
BITSFR6              0      0       0       7        0.0%
SFR6                 0      0       0       7        0.0%
BITBANK2            50      0       0       8        0.0%
BITSFR7              0      0       0       8        0.0%
SFR7                 0      0       0       8        0.0%
BANK2               50      0       0       9        0.0%
BITSFR8              0      0       0       9        0.0%
SFR8                 0      0       0       9        0.0%
BITBANK3            50      0       0      10        0.0%
BITSFR9              0      0       0      10        0.0%
SFR9                 0      0       0      10        0.0%
BANK3               50      0       0      11        0.0%
BITSFR10             0      0       0      11        0.0%
SFR10                0      0       0      11        0.0%
BITBANK4            50      0       0      12        0.0%
BITSFR11             0      0       0      12        0.0%
SFR11                0      0       0      12        0.0%
BANK4               50      0       0      13        0.0%
BITSFR12             0      0       0      13        0.0%
SFR12                0      0       0      13        0.0%
BITBANK5            50      0       0      14        0.0%
BITSFR13             0      0       0      14        0.0%
SFR13                0      0       0      14        0.0%
BANK5               50      0       0      15        0.0%
BITSFR14             0      0       0      15        0.0%
SFR14                0      0       0      15        0.0%
BITBANK6            50      0       0      16        0.0%
BITSFR15             0      0       0      16        0.0%
SFR15                0      0       0      16        0.0%
BANK6               50      0       0      17        0.0%
BITSFR16             0      0       0      17        0.0%
SFR16                0      0       0      17        0.0%
BITBANK7            50      0       0      18        0.0%
BITSFR17             0      0       0      18        0.0%
SFR17                0      0       0      18        0.0%
BANK7               50      0       0      19        0.0%
BITSFR18             0      0       0      19        0.0%
SFR18                0      0       0      19        0.0%
BITSFR19             0      0       0      20        0.0%
SFR19                0      0       0      20        0.0%
ABS                  0      0      24      20        0.0%
BITBANK8            50      0       0      21        0.0%
BITSFR20             0      0       0      21        0.0%
SFR20                0      0       0      21        0.0%
BANK8               50      0       0      22        0.0%
BITSFR21             0      0       0      22        0.0%
SFR21                0      0       0      22        0.0%
BITBANK9            50      0       0      23        0.0%
BITSFR22             0      0       0      23        0.0%
SFR22                0      0       0      23        0.0%
BANK9               50      0       0      24        0.0%
BITSFR23             0      0       0      24        0.0%
SFR23                0      0       0      24        0.0%
BITBANK10           50      0       0      25        0.0%
BITSFR24             0      0       0      25        0.0%
SFR24                0      0       0      25        0.0%
BANK10              50      0       0      26        0.0%
BITSFR25             0      0       0      26        0.0%
SFR25                0      0       0      26        0.0%
BITBANK11           50      0       0      27        0.0%
BITSFR26             0      0       0      27        0.0%
SFR26                0      0       0      27        0.0%
BANK11              50      0       0      28        0.0%
BITSFR27             0      0       0      28        0.0%
SFR27                0      0       0      28        0.0%
BITBANK12           30      0       0      29        0.0%
BITSFR28             0      0       0      29        0.0%
SFR28                0      0       0      29        0.0%
BANK12              30      0       0      30        0.0%
BITSFR29             0      0       0      30        0.0%
SFR29                0      0       0      30        0.0%
BITSFR30             0      0       0      31        0.0%
SFR30                0      0       0      31        0.0%
DATA                 0      0      24      31        0.0%
BITSFR31             0      0       0      32        0.0%
SFR31                0      0       0      32        0.0%


Microchip Technology PIC Macro Assembler V2.32 build 20210201212658 
Symbol Table                                                                                   Wed Jun 23 19:06:44 2021

                                           l81 01BF                                             _ID 0020  
                                           l59 02E2                                             l84 014A  
                                           _RS 0028                                _timer0ReloadVal 0031  
                                          l120 0168                                            l123 0173  
                                          l203 05B1                                            l132 01A7  
                                          l141 01D2                                            l117 0167  
                                          l213 05F7                                            l126 012B  
                                          l134 01AC                                            l150 0212  
                                          l135 01AF                                            l223 0643  
                                          l144 01E7                                            l208 05D4  
                                          l129 0131                                            l233 0689  
                                          l138 0355                                            l218 061A  
                                          l147 01FC                                            l243 06D5  
                                          l180 015C                                            l156 022F  
                                          l324 0251                                            l228 0666  
                                          l341 0182                                            l165 02A6  
                                          l253 071B                                            l238 06AC  
                                          l351 0153                                            l263 0767  
                                          l248 06F8                                            l345 0190  
                                          l329 019F                                            l281 07E1  
                                          l273 07AC                                            l258 073E  
                                          l363 013D                                            l348 014B  
                                          l380 0181                                            l268 078A  
                                          l366 0143                                            l278 07CF  
                                          l198 0278                                            l369 0137  
                       switch_press_scan@key_o 0075                                            u700 016D  
                                          u701 016C                                            u710 0173  
                                          u711 0172                                            u720 01AC  
                                          u800 05D8                                            u721 01AB  
                                          u801 05D7                                            u810 05EA  
                                          u811 05E9                                            u900 0659  
                                          u820 05F7                                            u901 0658  
                                          u821 05F6                                            u910 0666  
                                          u830 05FB                                            u750 05A4  
                                          u735 01F3                                            u911 0665  
                                          u831 05FA                                            u751 05A3  
                                          u920 066A                                            u840 060D  
                                          u760 05B1                                            u745 0209  
                                          u921 0669                                            u841 060C  
                                          u761 05B0                                            u930 067C  
                                          u850 061A                                            u770 05B5  
                                          u931 067B                                            u851 0619  
                                          u771 05B4                                            u940 0689  
                                          u860 061E                                            u780 05C7  
                                          u941 0688                                            u861 061D  
                                          u781 05C6                                            u950 068D  
                                          u870 0636                                            u790 05D4  
                                          u951 068C                                            u871 0635  
                                          u791 05D3                                            u960 069F  
                                          u880 0643                                            u961 069E  
                                          u881 0642                                            u970 06AC  
                                          u890 0647                                            u971 06AB  
                                          u891 0646                                            u980 06B0  
                                          u981 06AF                                            u990 06C8  
                                          u991 06C7                         switch_press_scan@val_o 0073  
                                          _Key 007D                                            _Val 0029  
               ?_EUSART_SetFramingErrorHandler 0070                                            wreg 0009  
                              __end_of_LCD_CMD 01FD                                   ?_EUSART_Read 0070  
                          LCD_Write_String@Str 0076                                 _LCD_Set_Cursor 0279  
                                         l2000 077D                                           l2010 079F  
                                         l2002 0785                                           l2100 0197  
                                         l2012 07A7                                           l2020 07BE  
                                         l2110 0187                                           l2102 019C  
                                         l2030 07DA                                           l2022 07C2  
                                         l2006 078E                                           l2112 0188  
                                         l2120 014B                                           l2104 019E  
                                         l2040 02F9                                           l2032 01B0  
                                         l2024 07CA                                           l2016 07B0  
                                         l2008 079B                                           l2200 0431  
                                         l2114 018D                                           l2122 0150  
                                         l2050 0325                                           l2042 0301  
                                         l2034 02E4                                           l2018 07B7  
                                         l2210 0453                                           l2202 0438  
                                         l2116 018F                                           l2108 0182  
                                         l2052 0331                                           l2044 030D  
                                         l2036 02E9                                           l2060 0213  
                                         l2028 07D3                                           l2300 057B  
                                         l2220 046E                                           l2212 0459  
                                         l2204 0443                                           l2054 0335  
                                         l2046 0311                                           l2038 02ED  
                                         l2070 027B                                           l2062 0216  
                                         l2302 0581                                           l2230 0485  
                                         l2222 0472                                           l2214 045D  
                                         l2206 0446                                           l2150 0376  
                                         l2142 0356                                           l2056 0341  
                                         l2048 031D                                           l2072 0281  
                                         l2064 0220                                           l2240 04B1  
                                         l2232 048D                                           l2224 0477  
                                         l2216 0465                                           l2208 044C  
                                         l2160 0399                                           l2152 037D  
                                         l2144 0363                                           l2058 0349  
                                         l2074 0287                                           l2066 0224  
                                         l2090 025C                                           l2250 04CD  
                                         l2242 04B7                                           l2234 0495  
                                         l2226 047B                                           l2218 0469  
                                         l2170 03C2                                           l2162 039F  
                                         l2154 0389                                           l2146 0369  
                                         l1700 01D9                                           l2084 0154  
                                         l2076 028D                                           l2068 027A  
                                         l2092 0264                                           l2260 04F2  
                                         l2252 04D4                                           l2244 04BA  
                                         l2236 049C                                           l2228 047F  
                                         l2180 03EB                                           l2172 03C8  
                                         l2164 03B2                                           l2156 038C  
                                         l2148 0370                                           l1702 01DE  
                                         l2086 0158                                           l2326 029B  
                                         l2078 0293                                           l1710 02A7  
                                         l2094 026A                                           l2270 0510  
                                         l2262 04F8                                           l2254 04DB  
                                         l2246 04C0                                           l2238 04A7  
                                         l2190 040B                                           l2182 03F1  
                                         l2174 03CF                                           l2166 03B5  
                                         l2158 0392                                           l2096 0191  
                                         l1800 01F0                                           l1704 0138  
                                         l1720 02B4                                           l1712 02AB  
                                         l2088 0253                                           l2280 0531  
                                         l2272 0516                                           l2264 04FF  
                                         l2256 04DD                                           l2248 04C7  
                                         l2192 0413                                           l2184 03F8  
                                         l2176 03DE                                           l2168 03BB  
                                         l2098 0192                                           l1802 01FE  
                                         l1706 013E                                           l1730 02BF  
                                         l1722 02B5                                           l1714 02AE  
                                         l1810 059A                                           l2290 0558  
                                         l2282 0538                                           l2274 051D  
                                         l2266 0505                                           l2258 04EF  
                                         l2194 041E                                           l2186 03FD  
                                         l2178 03E4                                           l1804 0201  
                                         l1708 0132                                           l1740 02C8  
                                         l1732 02C1                                           l1724 02B7  
                                         l1716 02B0                                           l1900 067C  
                                         l1820 05A4                                           l1812 059C  
                                         l2292 055B                                           l2284 053E  
                                         l2276 0528                                           l2268 050D  
                                         l2196 0424                                           l2188 0405  
                                         l1750 02D4                                           l1742 02CA  
                                         l1734 02C2                                           l1726 02BA  
                                         l1718 02B2                                           l1902 0684  
                                         l1910 069B                                           l1822 05AC  
                                         l1830 05C3                                           l1814 059D  
                                         l1806 058C                                           l2294 0563  
                                         l2286 054A                                           l2278 052B  
                                         l2198 042B                                           l1680 0126  
                                         l1760 015D                                           l1752 02D7  
                                         l1744 02CD                                           l1736 02C3  
                                         l1728 02BD                                           l1920 06B7  
                                         l1912 069F                                           l1840 05DF  
                                         l1832 05C7                                           l1816 059E  
                                         l1808 0593                                           l2296 056E  
                                         l2288 0552                                           l1682 0129  
                                         l1690 01A4                                           l1762 0160  
                                         l1770 0144                                           l1754 02DA  
                                         l1746 02CF                                           l1738 02C6  
                                         l1930 06C3                                           l1914 06A7  
                                         l1922 06BE                                           l1906 068D  
                                         l1850 05FB                                           l1834 05CF  
                                         l1842 05E6                                           l1826 05B5  
                                         l1818 059F                                           l2298 0574  
                                         l1676 0168                                           l1684 012C  
                                         l1692 01AD                                           l1764 0161  
                                         l1772 0147                                           l1756 02DD  
                                         l1748 02D1                                           l1780 017C  
                                         l1940 06E0                                           l1932 06C8  
                                         l1924 06C0                                           l1908 0694  
                                         l1852 0602                                           l1844 05EA  
                                         l1828 05BC                                           l1678 016D  
                                         l1686 012F                                           l1790 0241  
                                         l1766 0164                                           l1774 0148  
                                         l1758 02DF                                           l1782 0180  
                                         l1950 06FC                                           l1934 06D0  
                                         l1942 06E7                                           l1926 06C1  
                                         l1918 06B0                                           l1870 062F  
                                         l1862 061E                                           l1846 05F2  
                                         l1854 0609                                           l1838 05D8  
                                         l1688 01A1                                           l1696 01C1  
                                         l1792 0248                                           l1784 0230  
                                         l1768 0166                                           l1776 0174  
                                         l1952 0703                                           l1944 06EB  
                                         l1928 06C2                                           l1872 0630  
                                         l1864 0625                                           l1856 060D  
                                         l1698 01D4                                           l1794 024F  
                                         l1786 0239                                           l1778 0179  
                                         l1970 0739                                           l1962 071F  
                                         l1946 06F3                                           l1954 070A  
                                         l1938 06D9                                           l1890 0661  
                                         l1882 0647                                           l1874 0631  
                                         l1858 0615                                           l1866 062C  
                                         l1796 01E9                                           l1788 023A  
                                         l1980 0752                                           l1964 0726  
                                         l1956 070E                                           l1884 064E  
                                         l1876 0636                                           l1868 062E  
                                         l1798 01EB                                           l1990 0762  
                                         l1982 0753                                           l1974 0742  
                                         l1958 0716                                           l1966 072D  
                                         l1894 066A                                           l1878 063E  
                                         l1886 0655                                           l1984 0754  
                                         l1976 0749                                           l1968 0731  
                                         l1896 0671                                           l1888 0659  
                                         l1994 076B                                           l1986 0755  
                                         l1978 0750                                           l1898 0678  
                                         l1996 0772                                           l1988 075A  
                                         l1998 0779                                           STR_1 0811  
                                         STR_2 0874                                           STR_3 0874  
                                         STR_4 0822                                           STR_5 0883  
                                         STR_6 0833                                           STR_7 08C9  
                                         STR_8 08E2                                           STR_9 0844  
                                         u1000 06D5                                           u1001 06D4  
                                         u1010 06D9                                           u1011 06D8  
                                         u1100 0742                                           u1020 06EB  
                                         u1101 0741                                           u1021 06EA  
                                         u1110 075A                                           u1030 06F8  
                                         u1111 0759                                           u1031 06F7  
                                         u1200 07C2                                           u1120 0767  
                                         u1040 06FC                                           u1201 07C1  
                                         u1121 0766                                           u1041 06FB  
                                         u1210 07CF                                           u1130 076B  
                                         u1050 070E                                           u1211 07CE  
                                         u1131 076A                                           u1051 070D  
                                         u1220 07D3                                           u1140 077D  
                                         u1060 071B                                           u1300 040B  
                                         u1221 07D2                                           u1141 077C  
                                         u1061 071A                                           u1301 040A  
                                         u1230 022F                                           u1150 078A  
                                         u1070 071F                                           u1310 0413  
                                         u1231 022E                                           u1151 0789  
                                         u1071 071E                                           u1311 0412  
                                         u1160 078E                                           u1080 0731  
                                         u1240 026A                                           u1161 078D  
                                         u1081 0730                                           u1241 0269  
                                         u1250 0197                                           u1170 079F  
                                         u1090 073E                                           u1330 048D  
                                         u1251 0196                                           u1171 079E  
                                         u1091 073D                                           u1331 048C  
                                         u1260 019C                                           u1180 07AC  
                                         u1340 04B1                                           u1261 019B  
                                         u1181 07AB                                           u1341 04B0  
                                         u1325 0473                                           _LATA 010C  
                                         u1270 0187                                           u1190 07B0  
                                         u1350 04B7                                           _LATB 010D  
                                         u1271 0186                                           u1191 07AF  
                                         u1351 04B6                                           u1407 03AB  
                                         _LATC 010E                                           u1280 018D  
                                         u1360 04EF                                           u1281 018C  
                                         u1361 04EE                                           u1417 03D4  
                                         u1290 0150                                           u1370 0558  
                                         u1291 014F                                           u1507 0639  
                                         u1371 0557                                           u1427 043D  
                                         u1380 0563                                           u1517 065C  
                                         u1381 0562                                           u1437 04A1  
                                         u1607 07A2                                           u1527 067F  
                                         u1447 04E2                                           u1617 07C5  
                                         u1537 06A2                                           u1457 0522  
                                         u1707 0350                                           u1627 02F0  
                                         u1547 06CB                                           u1467 05A7  
                                         u1717 0159                                           u1637 02FC  
                                         u1557 06EE                                           u1477 05CA  
                                         u1397 0382                                           u1727 01E4  
                                         u1647 0308                                           u1567 0711  
                                         u1487 05ED                                           u1657 0314  
                                         u1577 0734                                           u1497 0610  
                                         u1667 0320                                           u1587 075D  
                                         u1677 032C                                           u1597 0780  
                                         u1687 0338                                           u1697 0344  
                                         _TMR0 0015                                           _WPUA 020C  
                                         _WPUB 020D                                           _WPUC 020E  
                                         _Code 0022                              ?_LCD_Write_String 0076  
                                         _code 0026                                           _main 0356  
                           __size_of_LCD_Clear 0009                                           _uart 08D6  
                                         fsr0h 0005                                           fsr1h 0007  
                                         indf0 0000                                           fsr0l 0004  
                                         indf1 0001                                           fsr1l 0006  
                                         btemp 007E                                           start 0002  
                           ??_LCD_Write_String 0078                           LCD_Write_4Bit@Nibble 0073  
                      __end_of_TMR0_Initialize 0182                               __end_of_LCD_Init 0356  
                             ?_I2C_Master_Init 0070                               ?_I2C_Master_Wait 0070  
                                ?_EUSART_Write 0070                               ?_I2C_Master_Stop 0070  
               __size_of_OSCILLATOR_Initialize 0007                  __end_of_OSCILLATOR_Initialize 014B  
                                        ?_main 0070                                          STR_10 0892  
                                        STR_11 0800                                          STR_20 0892  
                                        STR_12 0854                                          STR_13 0892  
                                        STR_14 0864                                          STR_15 08BC  
                                        STR_16 08A1                                          STR_17 08C9  
                                        STR_18 08AF                                          STR_19 0844  
                                        _TRISA 008C                                          _TRISB 008D  
                                        _TRISC 008E                                          _RXPPS 0E24  
                       __end_of_LCD_Set_Cursor 02A7                               ??_keypad_scanner 0071  
                                        status 0003                                          wtemp0 007E  
                               _LCD_Write_4Bit 01D3                                 _LCD_Write_Char 01FD  
                              __initialization 07E2                                   __end_of_main 058B  
                                 __end_of_uart 08E2                              _IO_Expander_Write 01C0  
                               ??_EUSART_Write 0071                             ?_IO_Expander_Write 0070  
                                       ??_main 007B                              __end_of_LCD_Clear 015D  
                                    ??_LCD_CMD 0074                              ?_I2C_Master_Start 0070  
                            ?_I2C_Master_Write 0070                            ??_IO_Expander_Write 0071  
                              ?_LCD_Set_Cursor 0076                             ??_I2C_Master_Start 0070  
            _EUSART_DefaultFramingErrorHandler 0000                             ??_I2C_Master_Write 0070  
                   _EUSART_OverrunErrorHandler 002D                                         _ANSELA 018C  
                                       _ANSELB 018D                                         _ANSELC 018E  
                                       _BORCON 0116                                         _RC1REG 0199  
                                       _RC1STA 019D                                         _RC3PPS 0EA3  
                                       _RC4PPS 0EA4                                         _ODCONA 028C  
                                       _ODCONB 028D                                         _RC6PPS 0EA6  
                                       _ODCONC 028E                                         _INLVLA 038C  
                                       _INLVLB 038D                                         _INLVLC 038E  
                   __end_of_EUSART_is_tx_ready 01A0                                         _OSCCON 0099  
                                       _SPBRGH 019C                                         _SPBRGL 019B  
                                       _TX1REG 019A                                         _TX1STA 019E  
                                       _TRISC3 0473                                         _TRISC4 0474  
                       __end_of_LCD_Write_4Bit 01E8                         __end_of_LCD_Write_Char 0213  
                    __end_of_IO_Expander_Write 01D3                               ?_TMR0_Initialize 0070  
                                 __pdataCOMMON 007D                           __size_of_EUSART_Read 000F  
                            _SYSTEM_Initialize 01B0                        __end_of__initialization 07FD  
                                    ?_LCD_Init 0070                                ?_LCD_Write_4Bit 0070  
                           ?_SYSTEM_Initialize 0070                                ?_LCD_Write_Char 0070  
                               __pcstackCOMMON 0070                                   __pidataBANK0 0123  
                          ??_SYSTEM_Initialize 0072                                 _OPTION_REGbits 0095  
              ??_EUSART_SetOverrunErrorHandler 0072                      __end_of_SYSTEM_Initialize 01C0  
                                   __pbssBANK0 0020                           __end_of_EUSART_Write 0154  
                                   ??_LCD_Init 0076                     __size_of_IO_Expander_Write 0013  
                                   __pmaintext 0356                      __size_of_LCD_Write_String 001D  
                                      _LCD_CMD 01E8                                        _OSCTUNE 0098  
                                      _SSP1ADD 0212                                        _SLRCONA 030C  
                                      _SLRCONB 030D                                        _SLRCONC 030E  
                                      _SSP1BUF 0211                       ??_EUSART_SetErrorHandler 0072  
                                      _i2c_add 0032                                        _Val_mod 0024  
                             ??_LCD_Set_Cursor 0077                                        __ptext1 0252  
                                      __ptext2 058B                                        __ptext3 01B0  
                                      __ptext4 0174                                        __ptext5 02A7  
                                      __ptext6 0144                                        __ptext7 015D  
                                      __ptext8 0230                                        __ptext9 013E  
                                      _counter 0033                          _OSCILLATOR_Initialize 0144  
                     ??_PIN_MANAGER_Initialize 0070                       __size_of_I2C_Master_Init 000B  
                     __size_of_I2C_Master_Wait 000C                       __size_of_I2C_Master_Stop 0006  
                                    _LCD_Clear 0154                     __size_of_SYSTEM_Initialize 0010  
                         end_of_initialization 07FD          __end_of_EUSART_SetOverrunErrorHandler 0144  
       __size_of_EUSART_SetOverrunErrorHandler 0006                  _EUSART_SetOverrunErrorHandler 013E  
                            _EUSART_Initialize 0230                      __size_of_I2C_Master_Start 0006  
                    __size_of_I2C_Master_Write 0010                             ?_EUSART_Initialize 0070  
                           _EUSART_is_rx_ready 0000                             _EUSART_is_tx_ready 0191  
                          ??_EUSART_Initialize 0072                                      _PORTBbits 000D  
                                    _PORTCbits 000E                            ?_EUSART_is_tx_ready 0070  
                                   LCD_CMD@CMD 0075                                      _SSPDATPPS 0E21  
                                    _SSPCLKPPS 0E20                          __size_of_EUSART_Write 0009  
                                   ?_LCD_Clear 0070                           switch_press_scan@key 0078  
                         switch_press_scan@val 0076                               ??_LCD_Write_4Bit 0072  
              __size_of_EUSART_SetErrorHandler 0006                              LCD_Write_String@i 0079  
                             ??_LCD_Write_Char 0074                      __end_of_EUSART_Initialize 0252  
                         ??_EUSART_is_tx_ready 0070                        __size_of_keypad_scanner 0257  
                            __size_of_LCD_Init 0073                     _EUSART_DefaultErrorHandler 0000  
                             _LCD_Write_String 0213                                  __pidataCOMMON 0122  
                                 _EUSART_Write 014B                         ?_OSCILLATOR_Initialize 0070  
                          start_initialization 07E2                       __size_of_TMR0_Initialize 000E  
              __size_of_PIN_MANAGER_Initialize 003C                                  ??_EUSART_Read 0070  
                       _EUSART_is_tx_ready$474 0070                              ??_I2C_Master_Init 0070  
                            ??_I2C_Master_Wait 0070                              ??_I2C_Master_Stop 0070  
               ?_EUSART_SetOverrunErrorHandler 0070                     _EUSART_FramingErrorHandler 002F  
                       _EUSART_SetErrorHandler 0132                                    __pdataBANK0 0033  
                                     ?_LCD_CMD 0070                                      ___latbits 0002  
                                  ??_LCD_Clear 0076                            keypad_scanner@key_o 0072  
                          keypad_scanner@val_o 0070                     __size_of_EUSART_Initialize 0022  
                          __end_of_EUSART_Read 0191                                      __pnvBANK0 002B  
                             _I2C_Master_Start 0126                               _I2C_Master_Write 01A0  
                       _PIN_MANAGER_Initialize 02A7                          IO_Expander_Write@Data 0071  
                         I2C_Master_Write@data 0070                                       _BAUD1CON 019F  
                            ??_TMR0_Initialize 0070                                       _LCD_Init 02E3  
                                     _LATAbits 010C         EUSART_SetErrorHandler@interruptHandler 0070  
                                     _LATCbits 010E                                 _keypad_scanner 058B  
                            _eusartRxLastError 0027                                       _PIR1bits 0010  
              ??_EUSART_SetFramingErrorHandler 0072                              _EUSART_is_tx_done 0000  
                                     _SSP1CON1 0215                                       _SSP1CON2 0216  
            _EUSART_DefaultOverrunErrorHandler 0000                                       _SSP1STAT 0214  
                            _switch_press_scan 0252                             ?_switch_press_scan 0073  
                             __size_of_LCD_CMD 0015                            ??_switch_press_scan 0074  
                                  _EUSART_Read 0182                       __end_of_LCD_Write_String 0230  
                       __end_of_keypad_scanner 07E2                      __end_of_switch_press_scan 0279  
                      ??_OSCILLATOR_Initialize 0070                            _EUSART_ErrorHandler 002B  
                              _I2C_Master_Init 015D                                _I2C_Master_Wait 0168  
                              _I2C_Master_Stop 012C                                       __ptext10 0138  
                                     __ptext11 0132                                       __ptext20 01A0  
                                     __ptext12 0213                                       __ptext21 012C  
                                     __ptext13 01FD                                       __ptext22 0126  
                                     __ptext14 0279                                       __ptext23 0168  
                                     __ptext15 02E3                                       __ptext24 0191  
                                     __ptext16 0154                                       __ptext25 014B  
                                     __ptext17 01E8                                       __ptext26 0182  
                                     __ptext18 01D3                                       __ptext19 01C0  
                                 _SSP1CON2bits 0216                        __size_of_LCD_Set_Cursor 002E  
                              ?_keypad_scanner 0070                                _BackLight_State 0035  
                                __size_of_main 0235                    __size_of_EUSART_is_tx_ready 000F  
                      ?_EUSART_SetErrorHandler 0070                                     _RC1STAbits 019D  
EUSART_SetOverrunErrorHandler@interruptHandler 0070          __end_of_EUSART_SetFramingErrorHandler 013E  
       __size_of_EUSART_SetFramingErrorHandler 0006                  _EUSART_SetFramingErrorHandler 0138  
                     __end_of_I2C_Master_Start 012C                       __end_of_I2C_Master_Write 01B0  
                                   _INTCONbits 000B                             LCD_Write_Char@Data 0075  
                               __pstringtext10 0883                                 __pstringtext11 0892  
                               __pstringtext12 08A1                                 __pstringtext13 08AF  
                               __pstringtext14 08BC                                 __pstringtext15 08C9  
                               __pstringtext16 08E2                                 __pstringtext17 0000  
                      ?_PIN_MANAGER_Initialize 0070                 __end_of_EUSART_SetErrorHandler 0138  
                      __size_of_LCD_Write_4Bit 0015                        __size_of_LCD_Write_Char 0016  
                   __size_of_switch_press_scan 0027  EUSART_SetFramingErrorHandler@interruptHandler 0070  
                      __end_of_I2C_Master_Init 0168                        __end_of_I2C_Master_Wait 0174  
                      __end_of_I2C_Master_Stop 0132                                LCD_Init@I2C_Add 0077  
                                __pstringtext1 08D6                                  __pstringtext2 0800  
                                __pstringtext3 0811                                  __pstringtext4 0822  
                                __pstringtext5 0833                                  __pstringtext6 0844  
                                __pstringtext7 0854                                  __pstringtext8 0864  
                                __pstringtext9 0874                                     _OPTION_REG 0095  
                              _TMR0_Initialize 0174                              LCD_Set_Cursor@COL 0076  
                            LCD_Set_Cursor@ROW 0079                                     _TX1STAbits 019E  
                           EUSART_Write@txData 0070                 __end_of_PIN_MANAGER_Initialize 02E3  
